---
triple:          'arm64-apple-darwin'
binary-path:     "/Users/maga/Desktop/University/3-ий курс/МОСППР/2"
relocations:
  - { offsetInCU: 0x5FAF, offset: 0x5FAF, size: 0x8, addend: 0x0, symName: __ZNSt3__17advanceB7v160006IPdllvEEvRT_T0_, symObjAddr: 0x5DC0, symBinAddr: 0x100009D14, symSize: 0x50 }
  - { offsetInCU: 0x6236, offset: 0x6236, size: 0x8, addend: 0x0, symName: __ZNSt3__17advanceB7v160006IPNS_6vectorIdNS_9allocatorIdEEEEllvEEvRT_T0_, symObjAddr: 0x6100, symBinAddr: 0x10000A054, symSize: 0x50 }
  - { offsetInCU: 0x62FC, offset: 0x62FC, size: 0x8, addend: 0x0, symName: __ZNSt3__124__put_character_sequenceB7v160006IcNS_11char_traitsIcEEEERNS_13basic_ostreamIT_T0_EES7_PKS4_m, symObjAddr: 0x6974, symBinAddr: 0x10000A8C8, symSize: 0x1EC }
  - { offsetInCU: 0x8063, offset: 0x8063, size: 0x8, addend: 0x0, symName: __ZNSt3__1lsB7v160006INS_11char_traitsIcEEEERNS_13basic_ostreamIcT_EES6_PKc, symObjAddr: 0x14F8, symBinAddr: 0x10000544C, symSize: 0x48 }
  - { offsetInCU: 0x80A9, offset: 0x80A9, size: 0x8, addend: 0x0, symName: __ZNSt3__1lsB7v160006IcNS_11char_traitsIcEEEERNS_13basic_ostreamIT_T0_EES7_RKNS_8__iom_t6E, symObjAddr: 0x1540, symBinAddr: 0x100005494, symSize: 0x40 }
  - { offsetInCU: 0x80F8, offset: 0x80F8, size: 0x8, addend: 0x0, symName: __ZNSt3__1lsB7v160006IcNS_11char_traitsIcEENS_9allocatorIcEEEERNS_13basic_ostreamIT_T0_EES9_RKNS_12basic_stringIS6_S7_T1_EE, symObjAddr: 0x1580, symBinAddr: 0x1000054D4, symSize: 0x4C }
  - { offsetInCU: 0x8150, offset: 0x8150, size: 0x8, addend: 0x0, symName: __ZNSt3__1lsB7v160006INS_11char_traitsIcEEEERNS_13basic_ostreamIcT_EES6_RKNS_8__iom_t4IcEE, symObjAddr: 0x15CC, symBinAddr: 0x100005520, symSize: 0x40 }
  - { offsetInCU: 0x8193, offset: 0x8193, size: 0x8, addend: 0x0, symName: __ZNSt3__17setfillB7v160006IcEENS_8__iom_t4IT_EES2_, symObjAddr: 0x160C, symBinAddr: 0x100005560, symSize: 0x2C }
  - { offsetInCU: 0x81C8, offset: 0x81C8, size: 0x8, addend: 0x0, symName: __ZNSt3__14setwB7v160006Ei, symObjAddr: 0x1638, symBinAddr: 0x10000558C, symSize: 0x2C }
  - { offsetInCU: 0x81F6, offset: 0x81F6, size: 0x8, addend: 0x0, symName: __ZNSt3__1plB7v160006IcNS_11char_traitsIcEENS_9allocatorIcEEEENS_12basic_stringIT_T0_T1_EEPKS6_OS9_, symObjAddr: 0x1664, symBinAddr: 0x1000055B8, symSize: 0x44 }
  - { offsetInCU: 0x824E, offset: 0x824E, size: 0x8, addend: 0x0, symName: __ZNSt3__14endlB7v160006IcNS_11char_traitsIcEEEERNS_13basic_ostreamIT_T0_EES7_, symObjAddr: 0x16D4, symBinAddr: 0x100005628, symSize: 0x58 }
  - { offsetInCU: 0x828E, offset: 0x828E, size: 0x8, addend: 0x0, symName: __ZNSt3__122__make_exception_guardB7v160006INS_6vectorINS1_IdNS_9allocatorIdEEEENS2_IS4_EEE16__destroy_vectorEEENS_28__exception_guard_exceptionsIT_EES9_, symObjAddr: 0x18B0, symBinAddr: 0x100005804, symSize: 0x40 }
  - { offsetInCU: 0x82C3, offset: 0x82C3, size: 0x8, addend: 0x0, symName: __ZNSt3__119__debug_db_insert_cB7v160006INS_6vectorINS1_IdNS_9allocatorIdEEEENS2_IS4_EEEEEEvPT_, symObjAddr: 0x1924, symBinAddr: 0x100005878, symSize: 0x10 }
  - { offsetInCU: 0x82F4, offset: 0x82F4, size: 0x8, addend: 0x0, symName: __ZNSt3__119__allocate_at_leastB7v160006INS_9allocatorINS_6vectorIdNS1_IdEEEEEEEENS_19__allocation_resultINS_16allocator_traitsIT_E7pointerEEERS8_m, symObjAddr: 0x1CB4, symBinAddr: 0x100005C08, symSize: 0x40 }
  - { offsetInCU: 0x8337, offset: 0x8337, size: 0x8, addend: 0x0, symName: __ZNSt3__13minB7v160006ImEERKT_S3_S3_, symObjAddr: 0x1E0C, symBinAddr: 0x100005D60, symSize: 0x2C }
  - { offsetInCU: 0x8564, offset: 0x8564, size: 0x8, addend: 0x0, symName: __ZNSt3__13minB7v160006ImNS_6__lessImmEEEERKT_S5_S5_T0_, symObjAddr: 0x1EA8, symBinAddr: 0x100005DFC, symSize: 0x54 }
  - { offsetInCU: 0x87E5, offset: 0x87E5, size: 0x8, addend: 0x0, symName: __ZNSt3__120__throw_length_errorB7v160006EPKc, symObjAddr: 0x1F8C, symBinAddr: 0x100005EE0, symSize: 0x64 }
  - { offsetInCU: 0x880D, offset: 0x880D, size: 0x8, addend: 0x0, symName: __ZNSt3__117__libcpp_allocateB7v160006Emm, symObjAddr: 0x2100, symBinAddr: 0x100006054, symSize: 0x60 }
  - { offsetInCU: 0x8867, offset: 0x8867, size: 0x8, addend: 0x0, symName: __ZNSt3__124__is_overaligned_for_newB7v160006Em, symObjAddr: 0x2160, symBinAddr: 0x1000060B4, symSize: 0x20 }
  - { offsetInCU: 0x8895, offset: 0x8895, size: 0x8, addend: 0x0, symName: __ZNSt3__121__libcpp_operator_newB7v160006IJmSt11align_val_tEEEPvDpT_, symObjAddr: 0x2180, symBinAddr: 0x1000060D4, symSize: 0x2C }
  - { offsetInCU: 0x88E2, offset: 0x88E2, size: 0x8, addend: 0x0, symName: __ZNSt3__121__libcpp_operator_newB7v160006IJmEEEPvDpT_, symObjAddr: 0x21AC, symBinAddr: 0x100006100, symSize: 0x24 }
  - { offsetInCU: 0x891B, offset: 0x891B, size: 0x8, addend: 0x0, symName: __ZNSt3__112__to_addressB7v160006INS_6vectorIdNS_9allocatorIdEEEEEEPT_S6_, symObjAddr: 0x22C8, symBinAddr: 0x10000621C, symSize: 0x14 }
  - { offsetInCU: 0x8975, offset: 0x8975, size: 0x8, addend: 0x0, symName: __ZNSt3__112construct_atB7v160006INS_6vectorIdNS_9allocatorIdEEEEJEPS4_EEPT_S7_DpOT0_, symObjAddr: 0x2418, symBinAddr: 0x10000636C, symSize: 0x34 }
  - { offsetInCU: 0x89D1, offset: 0x89D1, size: 0x8, addend: 0x0, symName: __ZNSt3__119__debug_db_insert_cB7v160006INS_6vectorIdNS_9allocatorIdEEEEEEvPT_, symObjAddr: 0x250C, symBinAddr: 0x100006460, symSize: 0x10 }
  - { offsetInCU: 0x8A02, offset: 0x8A02, size: 0x8, addend: 0x0, symName: __ZNSt3__118__debug_db_erase_cB7v160006INS_6vectorINS1_IdNS_9allocatorIdEEEENS2_IS4_EEEEEEvPT_, symObjAddr: 0x27C4, symBinAddr: 0x100006718, symSize: 0x10 }
  - { offsetInCU: 0x8A33, offset: 0x8A33, size: 0x8, addend: 0x0, symName: __ZNSt3__110destroy_atB7v160006INS_6vectorIdNS_9allocatorIdEEEELi0EEEvPT_, symObjAddr: 0x28E4, symBinAddr: 0x100006838, symSize: 0x24 }
  - { offsetInCU: 0x8A6A, offset: 0x8A6A, size: 0x8, addend: 0x0, symName: __ZNSt3__112__destroy_atB7v160006INS_6vectorIdNS_9allocatorIdEEEELi0EEEvPT_, symObjAddr: 0x2908, symBinAddr: 0x10000685C, symSize: 0x24 }
  - { offsetInCU: 0x8AA1, offset: 0x8AA1, size: 0x8, addend: 0x0, symName: __ZNSt3__119__libcpp_deallocateB7v160006EPvmm, symObjAddr: 0x2970, symBinAddr: 0x1000068C4, symSize: 0x60 }
  - { offsetInCU: 0x8B06, offset: 0x8B06, size: 0x8, addend: 0x0, symName: __ZNSt3__127__do_deallocate_handle_sizeB7v160006IJSt11align_val_tEEEvPvmDpT_, symObjAddr: 0x29D0, symBinAddr: 0x100006924, symSize: 0x30 }
  - { offsetInCU: 0x8B59, offset: 0x8B59, size: 0x8, addend: 0x0, symName: __ZNSt3__127__do_deallocate_handle_sizeB7v160006IJEEEvPvmDpT_, symObjAddr: 0x2A00, symBinAddr: 0x100006954, symSize: 0x28 }
  - { offsetInCU: 0x8B97, offset: 0x8B97, size: 0x8, addend: 0x0, symName: __ZNSt3__124__libcpp_operator_deleteB7v160006IJPvSt11align_val_tEEEvDpT_, symObjAddr: 0x2A28, symBinAddr: 0x10000697C, symSize: 0x2C }
  - { offsetInCU: 0x8BE0, offset: 0x8BE0, size: 0x8, addend: 0x0, symName: __ZNSt3__124__libcpp_operator_deleteB7v160006IJPvEEEvDpT_, symObjAddr: 0x2A54, symBinAddr: 0x1000069A8, symSize: 0x24 }
  - { offsetInCU: 0x8C15, offset: 0x8C15, size: 0x8, addend: 0x0, symName: __ZNSt3__112__to_addressB7v160006IdEEPT_S2_, symObjAddr: 0x3084, symBinAddr: 0x100006FD8, symSize: 0x14 }
  - { offsetInCU: 0x8C6F, offset: 0x8C6F, size: 0x8, addend: 0x0, symName: __ZNSt3__112construct_atB7v160006IdJEPdEEPT_S3_DpOT0_, symObjAddr: 0x3108, symBinAddr: 0x10000705C, symSize: 0x24 }
  - { offsetInCU: 0x8CCB, offset: 0x8CCB, size: 0x8, addend: 0x0, symName: __ZNSt3__13maxB7v160006ImEERKT_S3_S3_, symObjAddr: 0x3240, symBinAddr: 0x100007194, symSize: 0x2C }
  - { offsetInCU: 0x8D0E, offset: 0x8D0E, size: 0x8, addend: 0x0, symName: __ZNSt3__13maxB7v160006ImNS_6__lessImmEEEERKT_S5_S5_T0_, symObjAddr: 0x3354, symBinAddr: 0x1000072A8, symSize: 0x54 }
  - { offsetInCU: 0x8D68, offset: 0x8D68, size: 0x8, addend: 0x0, symName: __ZNSt3__119__allocate_at_leastB7v160006INS_9allocatorIdEEEENS_19__allocation_resultINS_16allocator_traitsIT_E7pointerEEERS5_m, symObjAddr: 0x34B8, symBinAddr: 0x10000740C, symSize: 0x40 }
  - { offsetInCU: 0x8DAB, offset: 0x8DAB, size: 0x8, addend: 0x0, symName: __ZNSt3__142__uninitialized_allocator_move_if_noexceptB7v160006INS_9allocatorIdEENS_16reverse_iteratorIPdEES5_dvEET1_RT_T0_S9_S6_, symObjAddr: 0x37F0, symBinAddr: 0x100007744, symSize: 0x78 }
  - { offsetInCU: 0x8E28, offset: 0x8E28, size: 0x8, addend: 0x0, symName: __ZNSt3__14swapB7v160006IPdEENS_9enable_ifIXaasr21is_move_constructibleIT_EE5valuesr18is_move_assignableIS3_EE5valueEvE4typeERS3_S6_, symObjAddr: 0x38B4, symBinAddr: 0x100007808, symSize: 0x3C }
  - { offsetInCU: 0x8E79, offset: 0x8E79, size: 0x8, addend: 0x0, symName: __ZNSt3__125__debug_db_invalidate_allB7v160006INS_6vectorIdNS_9allocatorIdEEEEEEvPT_, symObjAddr: 0x399C, symBinAddr: 0x1000078F0, symSize: 0x10 }
  - { offsetInCU: 0x8EAA, offset: 0x8EAA, size: 0x8, addend: 0x0, symName: __ZNSt3__14moveB7v160006INS_16reverse_iteratorIPdEES3_EET0_T_S5_S4_, symObjAddr: 0x39F4, symBinAddr: 0x100007948, symSize: 0x78 }
  - { offsetInCU: 0x8F04, offset: 0x8F04, size: 0x8, addend: 0x0, symName: __ZNSt3__16__moveB7v160006INS_17_ClassicAlgPolicyENS_16reverse_iteratorIPdEES4_S4_EENS_4pairIT0_T2_EES6_T1_S7_, symObjAddr: 0x3A6C, symBinAddr: 0x1000079C0, symSize: 0x64 }
  - { offsetInCU: 0x8F70, offset: 0x8F70, size: 0x8, addend: 0x0, symName: __ZNSt3__123__dispatch_copy_or_moveB7v160006INS_17_ClassicAlgPolicyENS_11__move_loopIS1_EENS_14__move_trivialENS_16reverse_iteratorIPdEES7_S7_EENS_4pairIT2_T4_EES9_T3_SA_, symObjAddr: 0x3AD0, symBinAddr: 0x100007A24, symSize: 0x64 }
  - { offsetInCU: 0x8FEE, offset: 0x8FEE, size: 0x8, addend: 0x0, symName: __ZNSt3__121__unwrap_and_dispatchB7v160006INS_10__overloadINS_11__move_loopINS_17_ClassicAlgPolicyEEENS_14__move_trivialEEENS_16reverse_iteratorIPdEES9_S9_Li0EEENS_4pairIT0_T2_EESB_T1_SC_, symObjAddr: 0x3B34, symBinAddr: 0x100007A88, symSize: 0x12C }
  - { offsetInCU: 0x907E, offset: 0x907E, size: 0x8, addend: 0x0, symName: __ZNSt3__114__unwrap_rangeB7v160006INS_16reverse_iteratorIPdEES3_EEDaT_T0_, symObjAddr: 0x3C60, symBinAddr: 0x100007BB4, symSize: 0x4C }
  - { offsetInCU: 0x91F9, offset: 0x91F9, size: 0x8, addend: 0x0, symName: __ZNSt3__113__unwrap_iterB7v160006INS_16reverse_iteratorIPdEENS_18__unwrap_iter_implIS3_Lb0EEELi0EEEDTclsrT0_8__unwrapclsr3stdE7declvalIT_EEEES7_, symObjAddr: 0x3D4C, symBinAddr: 0x100007CA0, symSize: 0x44 }
  - { offsetInCU: 0x923D, offset: 0x923D, size: 0x8, addend: 0x0, symName: __ZNSt3__19make_pairB7v160006INS_16reverse_iteratorIPdEES3_EENS_4pairINS_18__unwrap_ref_decayIT_E4typeENS5_IT0_E4typeEEEOS6_OS9_, symObjAddr: 0x3D90, symBinAddr: 0x100007CE4, symSize: 0x38 }
  - { offsetInCU: 0x928C, offset: 0x928C, size: 0x8, addend: 0x0, symName: __ZNSt3__114__rewrap_rangeB7v160006INS_16reverse_iteratorIPdEES3_S3_EET0_S4_T1_, symObjAddr: 0x3DC8, symBinAddr: 0x100007D1C, symSize: 0x5C }
  - { offsetInCU: 0x92E1, offset: 0x92E1, size: 0x8, addend: 0x0, symName: __ZNSt3__113__rewrap_iterB7v160006INS_16reverse_iteratorIPdEES3_NS_18__unwrap_iter_implIS3_Lb0EEEEET_S6_T0_, symObjAddr: 0x3E24, symBinAddr: 0x100007D78, symSize: 0x74 }
  - { offsetInCU: 0x9386, offset: 0x9386, size: 0x8, addend: 0x0, symName: __ZNSt3__1neB7v160006IPdS1_EEbRKNS_16reverse_iteratorIT_EERKNS2_IT0_EE, symObjAddr: 0x3F8C, symBinAddr: 0x100007EE0, symSize: 0x48 }
  - { offsetInCU: 0x9484, offset: 0x9484, size: 0x8, addend: 0x0, symName: __ZNSt3__110destroy_atB7v160006IdLi0EEEvPT_, symObjAddr: 0x4318, symBinAddr: 0x10000826C, symSize: 0x24 }
  - { offsetInCU: 0x94BB, offset: 0x94BB, size: 0x8, addend: 0x0, symName: __ZNSt3__112__destroy_atB7v160006IdLi0EEEvPT_, symObjAddr: 0x433C, symBinAddr: 0x100008290, symSize: 0x10 }
  - { offsetInCU: 0x94F2, offset: 0x94F2, size: 0x8, addend: 0x0, symName: __ZNSt3__122__make_exception_guardB7v160006INS_6vectorIdNS_9allocatorIdEEE16__destroy_vectorEEENS_28__exception_guard_exceptionsIT_EES7_, symObjAddr: 0x4698, symBinAddr: 0x1000085EC, symSize: 0x40 }
  - { offsetInCU: 0x9527, offset: 0x9527, size: 0x8, addend: 0x0, symName: __ZNSt3__130__uninitialized_allocator_copyB7v160006INS_9allocatorIdEEddLPv0EEEPT0_RT_PKS4_S9_S5_, symObjAddr: 0x4954, symBinAddr: 0x1000088A8, symSize: 0x38 }
  - { offsetInCU: 0x959F, offset: 0x959F, size: 0x8, addend: 0x0, symName: __ZNSt3__14copyB7v160006IPKdPdEET0_T_S5_S4_, symObjAddr: 0x498C, symBinAddr: 0x1000088E0, symSize: 0x40 }
  - { offsetInCU: 0x95F9, offset: 0x95F9, size: 0x8, addend: 0x0, symName: __ZNSt3__16__copyB7v160006INS_17_ClassicAlgPolicyEPKdS3_PdEENS_4pairIT0_T2_EES6_T1_S7_, symObjAddr: 0x49CC, symBinAddr: 0x100008920, symSize: 0x44 }
  - { offsetInCU: 0x9665, offset: 0x9665, size: 0x8, addend: 0x0, symName: __ZNSt3__123__dispatch_copy_or_moveB7v160006INS_17_ClassicAlgPolicyENS_11__copy_loopIS1_EENS_14__copy_trivialEPKdS6_PdEENS_4pairIT2_T4_EES9_T3_SA_, symObjAddr: 0x4A10, symBinAddr: 0x100008964, symSize: 0x44 }
  - { offsetInCU: 0x96E3, offset: 0x96E3, size: 0x8, addend: 0x0, symName: __ZNSt3__121__unwrap_and_dispatchB7v160006INS_10__overloadINS_11__copy_loopINS_17_ClassicAlgPolicyEEENS_14__copy_trivialEEEPKdS8_PdLi0EEENS_4pairIT0_T2_EESB_T1_SC_, symObjAddr: 0x4A54, symBinAddr: 0x1000089A8, symSize: 0xB4 }
  - { offsetInCU: 0x9771, offset: 0x9771, size: 0x8, addend: 0x0, symName: __ZNSt3__114__unwrap_rangeB7v160006IPKdS2_EEDaT_T0_, symObjAddr: 0x4B08, symBinAddr: 0x100008A5C, symSize: 0x3C }
  - { offsetInCU: 0x9906, offset: 0x9906, size: 0x8, addend: 0x0, symName: __ZNSt3__113__unwrap_iterB7v160006IPdNS_18__unwrap_iter_implIS1_Lb1EEELi0EEEDTclsrT0_8__unwrapclsr3stdE7declvalIT_EEEES5_, symObjAddr: 0x4B8C, symBinAddr: 0x100008AE0, symSize: 0x24 }
  - { offsetInCU: 0x994A, offset: 0x994A, size: 0x8, addend: 0x0, symName: __ZNSt3__19make_pairB7v160006IPKdPdEENS_4pairINS_18__unwrap_ref_decayIT_E4typeENS5_IT0_E4typeEEEOS6_OS9_, symObjAddr: 0x4BB0, symBinAddr: 0x100008B04, symSize: 0x38 }
  - { offsetInCU: 0x9999, offset: 0x9999, size: 0x8, addend: 0x0, symName: __ZNSt3__114__rewrap_rangeB7v160006IPKdS2_S2_EET0_S3_T1_, symObjAddr: 0x4BE8, symBinAddr: 0x100008B3C, symSize: 0x2C }
  - { offsetInCU: 0x99EE, offset: 0x99EE, size: 0x8, addend: 0x0, symName: __ZNSt3__113__rewrap_iterB7v160006IPdS1_NS_18__unwrap_iter_implIS1_Lb1EEEEET_S4_T0_, symObjAddr: 0x4C14, symBinAddr: 0x100008B68, symSize: 0x3C }
  - { offsetInCU: 0x9B5F, offset: 0x9B5F, size: 0x8, addend: 0x0, symName: __ZNSt3__113__unwrap_iterB7v160006IPKdNS_18__unwrap_iter_implIS2_Lb1EEELi0EEEDTclsrT0_8__unwrapclsr3stdE7declvalIT_EEEES6_, symObjAddr: 0x4CA8, symBinAddr: 0x100008BFC, symSize: 0x24 }
  - { offsetInCU: 0x9BF6, offset: 0x9BF6, size: 0x8, addend: 0x0, symName: __ZNSt3__112__to_addressB7v160006IKdEEPT_S3_, symObjAddr: 0x4D2C, symBinAddr: 0x100008C80, symSize: 0x14 }
  - { offsetInCU: 0x9C2B, offset: 0x9C2B, size: 0x8, addend: 0x0, symName: __ZNSt3__119__copy_trivial_implB7v160006IKddEENS_4pairIPT_PT0_EES4_S4_S6_, symObjAddr: 0x4D74, symBinAddr: 0x100008CC8, symSize: 0x84 }
  - { offsetInCU: 0x9C93, offset: 0x9C93, size: 0x8, addend: 0x0, symName: __ZNSt3__19make_pairB7v160006IRPKdPdEENS_4pairINS_18__unwrap_ref_decayIT_E4typeENS6_IT0_E4typeEEEOS7_OSA_, symObjAddr: 0x4DF8, symBinAddr: 0x100008D4C, symSize: 0x38 }
  - { offsetInCU: 0x9D35, offset: 0x9D35, size: 0x8, addend: 0x0, symName: __ZNSt3__113__rewrap_iterB7v160006IPKdS2_NS_18__unwrap_iter_implIS2_Lb1EEEEET_S5_T0_, symObjAddr: 0x4F60, symBinAddr: 0x100008EB4, symSize: 0x3C }
  - { offsetInCU: 0x9D8A, offset: 0x9D8A, size: 0x8, addend: 0x0, symName: __ZNSt3__118__debug_db_erase_cB7v160006INS_6vectorIdNS_9allocatorIdEEEEEEvPT_, symObjAddr: 0x5128, symBinAddr: 0x10000907C, symSize: 0x10 }
  - { offsetInCU: 0x9DBB, offset: 0x9DBB, size: 0x8, addend: 0x0, symName: __ZNSt3__130__uninitialized_allocator_copyB7v160006INS_9allocatorINS_6vectorIdNS1_IdEEEEEEPKS4_S7_PS4_EET2_RT_T0_T1_S9_, symObjAddr: 0x53B0, symBinAddr: 0x100009304, symSize: 0xF4 }
  - { offsetInCU: 0x9E59, offset: 0x9E59, size: 0x8, addend: 0x0, symName: __ZNSt3__122__make_exception_guardB7v160006INS_29_AllocatorDestroyRangeReverseINS_9allocatorINS_6vectorIdNS2_IdEEEEEEPS5_EEEENS_28__exception_guard_exceptionsIT_EESA_, symObjAddr: 0x54A4, symBinAddr: 0x1000093F8, symSize: 0x4C }
  - { offsetInCU: 0x9E8F, offset: 0x9E8F, size: 0x8, addend: 0x0, symName: __ZNSt3__112construct_atB7v160006INS_6vectorIdNS_9allocatorIdEEEEJRKS4_EPS4_EEPT_S9_DpOT0_, symObjAddr: 0x5648, symBinAddr: 0x10000959C, symSize: 0x3C }
  - { offsetInCU: 0x9EFF, offset: 0x9EFF, size: 0x8, addend: 0x0, symName: __ZNSt3__130__uninitialized_allocator_copyB7v160006INS_9allocatorIdEEPdS3_S3_EET2_RT_T0_T1_S4_, symObjAddr: 0x58FC, symBinAddr: 0x100009850, symSize: 0xF4 }
  - { offsetInCU: 0x9F9D, offset: 0x9F9D, size: 0x8, addend: 0x0, symName: __ZNSt3__122__make_exception_guardB7v160006INS_29_AllocatorDestroyRangeReverseINS_9allocatorIdEEPdEEEENS_28__exception_guard_exceptionsIT_EES7_, symObjAddr: 0x59F0, symBinAddr: 0x100009944, symSize: 0x4C }
  - { offsetInCU: 0x9FD3, offset: 0x9FD3, size: 0x8, addend: 0x0, symName: __ZNSt3__112construct_atB7v160006IdJRdEPdEEPT_S4_DpOT0_, symObjAddr: 0x5B94, symBinAddr: 0x100009AE8, symSize: 0x2C }
  - { offsetInCU: 0xA043, offset: 0xA043, size: 0x8, addend: 0x0, symName: __ZNSt3__119__allocator_destroyB7v160006INS_9allocatorIdEENS_16reverse_iteratorIPdEES5_EEvRT_T0_T1_, symObjAddr: 0x5C78, symBinAddr: 0x100009BCC, symSize: 0x70 }
  - { offsetInCU: 0xA0A6, offset: 0xA0A6, size: 0x8, addend: 0x0, symName: __ZNSt3__112__to_addressB7v160006INS_16reverse_iteratorIPdEEvEENS_5decayIDTclsr19__to_address_helperIT_EE6__callclsr3stdE7declvalIRKS5_EEEEE4typeES7_, symObjAddr: 0x5CE8, symBinAddr: 0x100009C3C, symSize: 0x24 }
  - { offsetInCU: 0xA105, offset: 0xA105, size: 0x8, addend: 0x0, symName: __ZNSt3__14prevB7v160006IPdEENS_9enable_ifIXsr25__is_cpp17_input_iteratorIT_EE5valueES3_E4typeES3_NS_15iterator_traitsIS3_E15difference_typeE, symObjAddr: 0x5D70, symBinAddr: 0x100009CC4, symSize: 0x50 }
  - { offsetInCU: 0xA148, offset: 0xA148, size: 0x8, addend: 0x0, symName: __ZNSt3__121__convert_to_integralB7v160006El, symObjAddr: 0x5E10, symBinAddr: 0x100009D64, symSize: 0x14 }
  - { offsetInCU: 0xA174, offset: 0xA174, size: 0x8, addend: 0x0, symName: __ZNSt3__19__advanceB7v160006IPdEEvRT_NS_15iterator_traitsIS2_E15difference_typeENS_26random_access_iterator_tagE, symObjAddr: 0x5E24, symBinAddr: 0x100009D78, symSize: 0x28 }
  - { offsetInCU: 0xA1BD, offset: 0xA1BD, size: 0x8, addend: 0x0, symName: __ZNSt3__119__allocator_destroyB7v160006INS_9allocatorINS_6vectorIdNS1_IdEEEEEENS_16reverse_iteratorIPS4_EES8_EEvRT_T0_T1_, symObjAddr: 0x5F04, symBinAddr: 0x100009E58, symSize: 0x70 }
  - { offsetInCU: 0xA220, offset: 0xA220, size: 0x8, addend: 0x0, symName: __ZNSt3__1neB7v160006IPNS_6vectorIdNS_9allocatorIdEEEES5_EEbRKNS_16reverse_iteratorIT_EERKNS6_IT0_EE, symObjAddr: 0x5FA8, symBinAddr: 0x100009EFC, symSize: 0x48 }
  - { offsetInCU: 0xA26C, offset: 0xA26C, size: 0x8, addend: 0x0, symName: __ZNSt3__112__to_addressB7v160006INS_16reverse_iteratorIPNS_6vectorIdNS_9allocatorIdEEEEEEvEENS_5decayIDTclsr19__to_address_helperIT_EE6__callclsr3stdE7declvalIRKS9_EEEEE4typeESB_, symObjAddr: 0x5FF0, symBinAddr: 0x100009F44, symSize: 0x24 }
  - { offsetInCU: 0xA2CB, offset: 0xA2CB, size: 0x8, addend: 0x0, symName: __ZNSt3__14prevB7v160006IPNS_6vectorIdNS_9allocatorIdEEEEEENS_9enable_ifIXsr25__is_cpp17_input_iteratorIT_EE5valueES7_E4typeES7_NS_15iterator_traitsIS7_E15difference_typeE, symObjAddr: 0x60B0, symBinAddr: 0x10000A004, symSize: 0x50 }
  - { offsetInCU: 0xA30E, offset: 0xA30E, size: 0x8, addend: 0x0, symName: __ZNSt3__19__advanceB7v160006IPNS_6vectorIdNS_9allocatorIdEEEEEEvRT_NS_15iterator_traitsIS6_E15difference_typeENS_26random_access_iterator_tagE, symObjAddr: 0x6150, symBinAddr: 0x10000A0A4, symSize: 0x30 }
  - { offsetInCU: 0xA357, offset: 0xA357, size: 0x8, addend: 0x0, symName: __ZNSt3__130__uninitialized_allocator_copyB7v160006INS_9allocatorINS_6vectorIdNS1_IdEEEEEEPS4_S6_S6_EET2_RT_T0_T1_S7_, symObjAddr: 0x63EC, symBinAddr: 0x10000A340, symSize: 0xF4 }
  - { offsetInCU: 0xA3F5, offset: 0xA3F5, size: 0x8, addend: 0x0, symName: __ZNSt3__112construct_atB7v160006INS_6vectorIdNS_9allocatorIdEEEEJRS4_EPS4_EEPT_S8_DpOT0_, symObjAddr: 0x6510, symBinAddr: 0x10000A464, symSize: 0x3C }
  - { offsetInCU: 0xA465, offset: 0xA465, size: 0x8, addend: 0x0, symName: __ZNSt3__119__debug_db_insert_cB7v160006INS_12basic_stringIcNS_11char_traitsIcEENS_9allocatorIcEEEEEEvPT_, symObjAddr: 0x669C, symBinAddr: 0x10000A5F0, symSize: 0x10 }
  - { offsetInCU: 0xA496, offset: 0xA496, size: 0x8, addend: 0x0, symName: __ZNSt3__115__debug_db_swapB7v160006INS_12basic_stringIcNS_11char_traitsIcEENS_9allocatorIcEEEEEEvPT_S8_, symObjAddr: 0x66E4, symBinAddr: 0x10000A638, symSize: 0x14 }
  - { offsetInCU: 0xA4D5, offset: 0xA4D5, size: 0x8, addend: 0x0, symName: __ZNSt3__19use_facetB7v160006INS_5ctypeIcEEEERKT_RKNS_6localeE, symObjAddr: 0x68E4, symBinAddr: 0x10000A838, symSize: 0x2C }
  - { offsetInCU: 0xA9A4, offset: 0xA9A4, size: 0x8, addend: 0x0, symName: __ZNSt3__116__pad_and_outputB7v160006IcNS_11char_traitsIcEEEENS_19ostreambuf_iteratorIT_T0_EES6_PKS4_S8_S8_RNS_8ios_baseES4_, symObjAddr: 0x6BF8, symBinAddr: 0x10000AB4C, symSize: 0x240 }
  - { offsetInCU: 0xAA73, offset: 0xAA73, size: 0x8, addend: 0x0, symName: __ZNSt3__112__to_addressB7v160006IcEEPT_S2_, symObjAddr: 0x713C, symBinAddr: 0x10000B090, symSize: 0x14 }
  - { offsetInCU: 0xAAA8, offset: 0xAAA8, size: 0x8, addend: 0x0, symName: __ZNSt3__112__to_addressB7v160006IKcEEPT_S3_, symObjAddr: 0x72CC, symBinAddr: 0x10000B220, symSize: 0x14 }
  - { offsetInCU: 0xAB10, offset: 0xAB10, size: 0x8, addend: 0x0, symName: __ZNSt3__118__constexpr_strlenB7v160006EPKc, symObjAddr: 0x7428, symBinAddr: 0x10000B37C, symSize: 0x24 }
  - { offsetInCU: 0xAFAA, offset: 0xAFAA, size: 0x8, addend: 0x0, symName: __ZSt28__throw_bad_array_new_lengthB7v160006v, symObjAddr: 0x20CC, symBinAddr: 0x100006020, symSize: 0x34 }
  - { offsetInCU: 0xB56B, offset: 0xB56B, size: 0x8, addend: 0x0, symName: __ZNSt3__16vectorIdNS_9allocatorIdEEE26__swap_out_circular_bufferERNS_14__split_bufferIdRS2_EE, symObjAddr: 0x2EA4, symBinAddr: 0x100006DF8, symSize: 0x118 }
  - { offsetInCU: 0xD97C, offset: 0xD97C, size: 0x8, addend: 0x0, symName: __Z1fdd, symObjAddr: 0x0, symBinAddr: 0x100003F54, symSize: 0x60 }
  - { offsetInCU: 0xD9B6, offset: 0xD9B6, size: 0x8, addend: 0x0, symName: __Z8df_dx_dyRK5Point, symObjAddr: 0x60, symBinAddr: 0x100003FB4, symSize: 0xF0 }
  - { offsetInCU: 0xDABD, offset: 0xDABD, size: 0x8, addend: 0x0, symName: __ZN5PointC1Edd, symObjAddr: 0x150, symBinAddr: 0x1000040A4, symSize: 0x3C }
  - { offsetInCU: 0xDB02, offset: 0xDB02, size: 0x8, addend: 0x0, symName: __Z9ddf_dx_dyRK5Point, symObjAddr: 0x18C, symBinAddr: 0x1000040E0, symSize: 0x164 }
  - { offsetInCU: 0xDB9E, offset: 0xDB9E, size: 0x8, addend: 0x0, symName: __Z8ddf_dxdyRK5Point, symObjAddr: 0x2F0, symBinAddr: 0x100004244, symSize: 0xF0 }
  - { offsetInCU: 0xDC02, offset: 0xDC02, size: 0x8, addend: 0x0, symName: __Z4normRK5Point, symObjAddr: 0x3E0, symBinAddr: 0x100004334, symSize: 0x4C }
  - { offsetInCU: 0xDC3C, offset: 0xDC3C, size: 0x8, addend: 0x0, symName: __Z15matrix_multiplyNSt3__16vectorINS0_IdNS_9allocatorIdEEEENS1_IS3_EEEES5_, symObjAddr: 0x42C, symBinAddr: 0x100004380, symSize: 0x264 }
  - { offsetInCU: 0xDCF8, offset: 0xDCF8, size: 0x8, addend: 0x0, symName: __ZNKSt3__16vectorINS0_IdNS_9allocatorIdEEEENS1_IS3_EEE4sizeB7v160006Ev, symObjAddr: 0x690, symBinAddr: 0x1000045E4, symSize: 0x28 }
  - { offsetInCU: 0xDD1E, offset: 0xDD1E, size: 0x8, addend: 0x0, symName: __ZNSt3__16vectorINS0_IdNS_9allocatorIdEEEENS1_IS3_EEEC1Em, symObjAddr: 0x6B8, symBinAddr: 0x10000460C, symSize: 0x34 }
  - { offsetInCU: 0xDD59, offset: 0xDD59, size: 0x8, addend: 0x0, symName: __ZNSt3__16vectorINS0_IdNS_9allocatorIdEEEENS1_IS3_EEEixB7v160006Em, symObjAddr: 0x6EC, symBinAddr: 0x100004640, symSize: 0x2C }
  - { offsetInCU: 0xDD90, offset: 0xDD90, size: 0x8, addend: 0x0, symName: __ZNSt3__16vectorIdNS_9allocatorIdEEE6resizeEm, symObjAddr: 0x718, symBinAddr: 0x10000466C, symSize: 0x94 }
  - { offsetInCU: 0xDDD6, offset: 0xDDD6, size: 0x8, addend: 0x0, symName: __ZNKSt3__16vectorIdNS_9allocatorIdEEE4sizeB7v160006Ev, symObjAddr: 0x7AC, symBinAddr: 0x100004700, symSize: 0x28 }
  - { offsetInCU: 0xDDFC, offset: 0xDDFC, size: 0x8, addend: 0x0, symName: __ZNSt3__16vectorIdNS_9allocatorIdEEEixB7v160006Em, symObjAddr: 0x7D4, symBinAddr: 0x100004728, symSize: 0x24 }
  - { offsetInCU: 0xDE33, offset: 0xDE33, size: 0x8, addend: 0x0, symName: __ZNSt3__16vectorINS0_IdNS_9allocatorIdEEEENS1_IS3_EEED1B7v160006Ev, symObjAddr: 0x7F8, symBinAddr: 0x10000474C, symSize: 0x2C }
  - { offsetInCU: 0xDE5C, offset: 0xDE5C, size: 0x8, addend: 0x0, symName: __Z8get_stepRK5Point, symObjAddr: 0x824, symBinAddr: 0x100004778, symSize: 0x6EC }
  - { offsetInCU: 0xDF02, offset: 0xDF02, size: 0x8, addend: 0x0, symName: __ZNSt3__16vectorIdNS_9allocatorIdEEEC1B7v160006ESt16initializer_listIdE, symObjAddr: 0xF10, symBinAddr: 0x100004E64, symSize: 0x3C }
  - { offsetInCU: 0xDF3D, offset: 0xDF3D, size: 0x8, addend: 0x0, symName: __ZNSt3__16vectorIdNS_9allocatorIdEEED1B7v160006Ev, symObjAddr: 0xF4C, symBinAddr: 0x100004EA0, symSize: 0x2C }
  - { offsetInCU: 0xDF67, offset: 0xDF67, size: 0x8, addend: 0x0, symName: __ZNSt3__16vectorINS0_IdNS_9allocatorIdEEEENS1_IS3_EEEC1B7v160006ESt16initializer_listIS3_E, symObjAddr: 0xF78, symBinAddr: 0x100004ECC, symSize: 0x3C }
  - { offsetInCU: 0xDFA2, offset: 0xDFA2, size: 0x8, addend: 0x0, symName: __ZNSt3__16vectorINS0_IdNS_9allocatorIdEEEENS1_IS3_EEEC1ERKS5_, symObjAddr: 0xFB4, symBinAddr: 0x100004F08, symSize: 0x34 }
  - { offsetInCU: 0xDFDD, offset: 0xDFDD, size: 0x8, addend: 0x0, symName: _main, symObjAddr: 0xFE8, symBinAddr: 0x100004F3C, symSize: 0x47C }
  - { offsetInCU: 0xE036, offset: 0xE036, size: 0x8, addend: 0x0, symName: __ZmldRK5Point, symObjAddr: 0x1464, symBinAddr: 0x1000053B8, symSize: 0x54 }
  - { offsetInCU: 0xE071, offset: 0xE071, size: 0x8, addend: 0x0, symName: __ZN5PointmIERKS_, symObjAddr: 0x14B8, symBinAddr: 0x10000540C, symSize: 0x40 }
  - { offsetInCU: 0xE0A5, offset: 0xE0A5, size: 0x8, addend: 0x0, symName: __ZNSt3__113basic_ostreamIcNS_11char_traitsIcEEElsB7v160006EPFRS3_S4_E, symObjAddr: 0x16A8, symBinAddr: 0x1000055FC, symSize: 0x2C }
  - { offsetInCU: 0xE0D9, offset: 0xE0D9, size: 0x8, addend: 0x0, symName: __ZNK5Point4calcEv, symObjAddr: 0x172C, symBinAddr: 0x100005680, symSize: 0x3C }
  - { offsetInCU: 0xE0FF, offset: 0xE0FF, size: 0x8, addend: 0x0, symName: __ZN5PointC2Edd, symObjAddr: 0x1768, symBinAddr: 0x1000056BC, symSize: 0x2C }
  - { offsetInCU: 0xE145, offset: 0xE145, size: 0x8, addend: 0x0, symName: __ZNSt3__16vectorINS0_IdNS_9allocatorIdEEEENS1_IS3_EEEC2Em, symObjAddr: 0x1794, symBinAddr: 0x1000056E8, symSize: 0xE0 }
  - { offsetInCU: 0xE1A1, offset: 0xE1A1, size: 0x8, addend: 0x0, symName: __ZNSt3__117__compressed_pairIPNS_6vectorIdNS_9allocatorIdEEEENS2_IS4_EEEC1B7v160006IDnNS_18__default_init_tagEEEOT_OT0_, symObjAddr: 0x1874, symBinAddr: 0x1000057C8, symSize: 0x3C }
  - { offsetInCU: 0xE1F9, offset: 0xE1F9, size: 0x8, addend: 0x0, symName: __ZNSt3__16vectorINS0_IdNS_9allocatorIdEEEENS1_IS3_EEE16__destroy_vectorC1ERS5_, symObjAddr: 0x18F0, symBinAddr: 0x100005844, symSize: 0x34 }
  - { offsetInCU: 0xE232, offset: 0xE232, size: 0x8, addend: 0x0, symName: __ZNSt3__16vectorINS0_IdNS_9allocatorIdEEEENS1_IS3_EEE11__vallocateB7v160006Em, symObjAddr: 0x1934, symBinAddr: 0x100005888, symSize: 0xB4 }
  - { offsetInCU: 0xE276, offset: 0xE276, size: 0x8, addend: 0x0, symName: __ZNSt3__16vectorINS0_IdNS_9allocatorIdEEEENS1_IS3_EEE18__construct_at_endEm, symObjAddr: 0x19E8, symBinAddr: 0x10000593C, symSize: 0xC8 }
  - { offsetInCU: 0xE2E8, offset: 0xE2E8, size: 0x8, addend: 0x0, symName: __ZNSt3__128__exception_guard_exceptionsINS_6vectorINS1_IdNS_9allocatorIdEEEENS2_IS4_EEE16__destroy_vectorEE10__completeB7v160006Ev, symObjAddr: 0x1AB0, symBinAddr: 0x100005A04, symSize: 0x1C }
  - { offsetInCU: 0xE30E, offset: 0xE30E, size: 0x8, addend: 0x0, symName: __ZNSt3__128__exception_guard_exceptionsINS_6vectorINS1_IdNS_9allocatorIdEEEENS2_IS4_EEE16__destroy_vectorEED1B7v160006Ev, symObjAddr: 0x1ACC, symBinAddr: 0x100005A20, symSize: 0x2C }
  - { offsetInCU: 0xE338, offset: 0xE338, size: 0x8, addend: 0x0, symName: __ZNSt3__117__compressed_pairIPNS_6vectorIdNS_9allocatorIdEEEENS2_IS4_EEEC2B7v160006IDnNS_18__default_init_tagEEEOT_OT0_, symObjAddr: 0x1AF8, symBinAddr: 0x100005A4C, symSize: 0x40 }
  - { offsetInCU: 0xE390, offset: 0xE390, size: 0x8, addend: 0x0, symName: __ZNSt3__122__compressed_pair_elemIPNS_6vectorIdNS_9allocatorIdEEEELi0ELb0EEC2B7v160006IDnvEEOT_, symObjAddr: 0x1B38, symBinAddr: 0x100005A8C, symSize: 0x1C }
  - { offsetInCU: 0xE3D2, offset: 0xE3D2, size: 0x8, addend: 0x0, symName: __ZNSt3__122__compressed_pair_elemINS_9allocatorINS_6vectorIdNS1_IdEEEEEELi1ELb1EEC2B7v160006ENS_18__default_init_tagE, symObjAddr: 0x1B54, symBinAddr: 0x100005AA8, symSize: 0x2C }
  - { offsetInCU: 0xE406, offset: 0xE406, size: 0x8, addend: 0x0, symName: __ZNSt3__19allocatorINS_6vectorIdNS0_IdEEEEEC2B7v160006Ev, symObjAddr: 0x1B80, symBinAddr: 0x100005AD4, symSize: 0x2C }
  - { offsetInCU: 0xE430, offset: 0xE430, size: 0x8, addend: 0x0, symName: __ZNSt3__116__non_trivial_ifILb1ENS_9allocatorINS_6vectorIdNS1_IdEEEEEEEC2B7v160006Ev, symObjAddr: 0x1BAC, symBinAddr: 0x100005B00, symSize: 0x14 }
  - { offsetInCU: 0xE45A, offset: 0xE45A, size: 0x8, addend: 0x0, symName: __ZNSt3__128__exception_guard_exceptionsINS_6vectorINS1_IdNS_9allocatorIdEEEENS2_IS4_EEE16__destroy_vectorEEC1B7v160006ES7_, symObjAddr: 0x1BC0, symBinAddr: 0x100005B14, symSize: 0x34 }
  - { offsetInCU: 0xE492, offset: 0xE492, size: 0x8, addend: 0x0, symName: __ZNSt3__128__exception_guard_exceptionsINS_6vectorINS1_IdNS_9allocatorIdEEEENS2_IS4_EEE16__destroy_vectorEEC2B7v160006ES7_, symObjAddr: 0x1BF4, symBinAddr: 0x100005B48, symSize: 0x24 }
  - { offsetInCU: 0xE4CA, offset: 0xE4CA, size: 0x8, addend: 0x0, symName: __ZNSt3__16vectorINS0_IdNS_9allocatorIdEEEENS1_IS3_EEE16__destroy_vectorC2ERS5_, symObjAddr: 0x1C18, symBinAddr: 0x100005B6C, symSize: 0x20 }
  - { offsetInCU: 0xE503, offset: 0xE503, size: 0x8, addend: 0x0, symName: __ZNKSt3__16vectorINS0_IdNS_9allocatorIdEEEENS1_IS3_EEE8max_sizeEv, symObjAddr: 0x1C38, symBinAddr: 0x100005B8C, symSize: 0x60 }
  - { offsetInCU: 0xE52B, offset: 0xE52B, size: 0x8, addend: 0x0, symName: __ZNKSt3__16vectorINS0_IdNS_9allocatorIdEEEENS1_IS3_EEE20__throw_length_errorB7v160006Ev, symObjAddr: 0x1C98, symBinAddr: 0x100005BEC, symSize: 0x1C }
  - { offsetInCU: 0xE551, offset: 0xE551, size: 0x8, addend: 0x0, symName: __ZNSt3__16vectorINS0_IdNS_9allocatorIdEEEENS1_IS3_EEE7__allocB7v160006Ev, symObjAddr: 0x1CF4, symBinAddr: 0x100005C48, symSize: 0x28 }
  - { offsetInCU: 0xE577, offset: 0xE577, size: 0x8, addend: 0x0, symName: __ZNSt3__16vectorINS0_IdNS_9allocatorIdEEEENS1_IS3_EEE9__end_capB7v160006Ev, symObjAddr: 0x1D1C, symBinAddr: 0x100005C70, symSize: 0x28 }
  - { offsetInCU: 0xE59D, offset: 0xE59D, size: 0x8, addend: 0x0, symName: __ZNKSt3__16vectorINS0_IdNS_9allocatorIdEEEENS1_IS3_EEE14__annotate_newB7v160006Em, symObjAddr: 0x1D44, symBinAddr: 0x100005C98, symSize: 0xC8 }
  - { offsetInCU: 0xE5DC, offset: 0xE5DC, size: 0x8, addend: 0x0, symName: __ZNSt3__116allocator_traitsINS_9allocatorINS_6vectorIdNS1_IdEEEEEEE8max_sizeB7v160006IS5_vvEEmRKS5_, symObjAddr: 0x1E38, symBinAddr: 0x100005D8C, symSize: 0x28 }
  - { offsetInCU: 0xE607, offset: 0xE607, size: 0x8, addend: 0x0, symName: __ZNKSt3__16vectorINS0_IdNS_9allocatorIdEEEENS1_IS3_EEE7__allocB7v160006Ev, symObjAddr: 0x1E60, symBinAddr: 0x100005DB4, symSize: 0x28 }
  - { offsetInCU: 0xE62D, offset: 0xE62D, size: 0x8, addend: 0x0, symName: __ZNSt3__114numeric_limitsIlE3maxB7v160006Ev, symObjAddr: 0x1E88, symBinAddr: 0x100005DDC, symSize: 0x14 }
  - { offsetInCU: 0xE655, offset: 0xE655, size: 0x8, addend: 0x0, symName: __ZNKSt3__16__lessImmEclB7v160006ERKmS3_, symObjAddr: 0x1EFC, symBinAddr: 0x100005E50, symSize: 0x34 }
  - { offsetInCU: 0xE697, offset: 0xE697, size: 0x8, addend: 0x0, symName: __ZNSt3__114numeric_limitsImE3maxB7v160006Ev, symObjAddr: 0x1F30, symBinAddr: 0x100005E84, symSize: 0x14 }
  - { offsetInCU: 0xE6AB, offset: 0xE6AB, size: 0x8, addend: 0x0, symName: __ZNSt3__123__libcpp_numeric_limitsImLb1EE3maxB7v160006Ev, symObjAddr: 0x1F44, symBinAddr: 0x100005E98, symSize: 0x8 }
  - { offsetInCU: 0xE6BF, offset: 0xE6BF, size: 0x8, addend: 0x0, symName: __ZNKSt3__117__compressed_pairIPNS_6vectorIdNS_9allocatorIdEEEENS2_IS4_EEE6secondB7v160006Ev, symObjAddr: 0x1F4C, symBinAddr: 0x100005EA0, symSize: 0x24 }
  - { offsetInCU: 0xE6E5, offset: 0xE6E5, size: 0x8, addend: 0x0, symName: __ZNKSt3__122__compressed_pair_elemINS_9allocatorINS_6vectorIdNS1_IdEEEEEELi1ELb1EE5__getB7v160006Ev, symObjAddr: 0x1F70, symBinAddr: 0x100005EC4, symSize: 0x14 }
  - { offsetInCU: 0xE70B, offset: 0xE70B, size: 0x8, addend: 0x0, symName: __ZNSt3__123__libcpp_numeric_limitsIlLb1EE3maxB7v160006Ev, symObjAddr: 0x1F84, symBinAddr: 0x100005ED8, symSize: 0x8 }
  - { offsetInCU: 0xE71F, offset: 0xE71F, size: 0x8, addend: 0x0, symName: __ZNSt12length_errorC1B7v160006EPKc, symObjAddr: 0x1FF0, symBinAddr: 0x100005F44, symSize: 0x34 }
  - { offsetInCU: 0xE757, offset: 0xE757, size: 0x8, addend: 0x0, symName: __ZNSt12length_errorC2B7v160006EPKc, symObjAddr: 0x2024, symBinAddr: 0x100005F78, symSize: 0x4C }
  - { offsetInCU: 0xE78F, offset: 0xE78F, size: 0x8, addend: 0x0, symName: __ZNSt3__19allocatorINS_6vectorIdNS0_IdEEEEE8allocateB7v160006Em, symObjAddr: 0x2070, symBinAddr: 0x100005FC4, symSize: 0x5C }
  - { offsetInCU: 0xE7C3, offset: 0xE7C3, size: 0x8, addend: 0x0, symName: __ZNSt3__117__compressed_pairIPNS_6vectorIdNS_9allocatorIdEEEENS2_IS4_EEE6secondB7v160006Ev, symObjAddr: 0x21D0, symBinAddr: 0x100006124, symSize: 0x24 }
  - { offsetInCU: 0xE7E9, offset: 0xE7E9, size: 0x8, addend: 0x0, symName: __ZNSt3__122__compressed_pair_elemINS_9allocatorINS_6vectorIdNS1_IdEEEEEELi1ELb1EE5__getB7v160006Ev, symObjAddr: 0x21F4, symBinAddr: 0x100006148, symSize: 0x14 }
  - { offsetInCU: 0xE80F, offset: 0xE80F, size: 0x8, addend: 0x0, symName: __ZNSt3__117__compressed_pairIPNS_6vectorIdNS_9allocatorIdEEEENS2_IS4_EEE5firstB7v160006Ev, symObjAddr: 0x2208, symBinAddr: 0x10000615C, symSize: 0x24 }
  - { offsetInCU: 0xE835, offset: 0xE835, size: 0x8, addend: 0x0, symName: __ZNSt3__122__compressed_pair_elemIPNS_6vectorIdNS_9allocatorIdEEEELi0ELb0EE5__getB7v160006Ev, symObjAddr: 0x222C, symBinAddr: 0x100006180, symSize: 0x14 }
  - { offsetInCU: 0xE85B, offset: 0xE85B, size: 0x8, addend: 0x0, symName: __ZNKSt3__16vectorINS0_IdNS_9allocatorIdEEEENS1_IS3_EEE31__annotate_contiguous_containerB7v160006EPKvS7_S7_S7_, symObjAddr: 0x2240, symBinAddr: 0x100006194, symSize: 0x20 }
  - { offsetInCU: 0xE8AD, offset: 0xE8AD, size: 0x8, addend: 0x0, symName: __ZNKSt3__16vectorINS0_IdNS_9allocatorIdEEEENS1_IS3_EEE4dataB7v160006Ev, symObjAddr: 0x2260, symBinAddr: 0x1000061B4, symSize: 0x28 }
  - { offsetInCU: 0xE8D3, offset: 0xE8D3, size: 0x8, addend: 0x0, symName: __ZNKSt3__16vectorINS0_IdNS_9allocatorIdEEEENS1_IS3_EEE8capacityB7v160006Ev, symObjAddr: 0x2288, symBinAddr: 0x1000061DC, symSize: 0x40 }
  - { offsetInCU: 0xE8F9, offset: 0xE8F9, size: 0x8, addend: 0x0, symName: __ZNKSt3__16vectorINS0_IdNS_9allocatorIdEEEENS1_IS3_EEE9__end_capB7v160006Ev, symObjAddr: 0x22DC, symBinAddr: 0x100006230, symSize: 0x28 }
  - { offsetInCU: 0xE91F, offset: 0xE91F, size: 0x8, addend: 0x0, symName: __ZNKSt3__117__compressed_pairIPNS_6vectorIdNS_9allocatorIdEEEENS2_IS4_EEE5firstB7v160006Ev, symObjAddr: 0x2304, symBinAddr: 0x100006258, symSize: 0x24 }
  - { offsetInCU: 0xE945, offset: 0xE945, size: 0x8, addend: 0x0, symName: __ZNKSt3__122__compressed_pair_elemIPNS_6vectorIdNS_9allocatorIdEEEELi0ELb0EE5__getB7v160006Ev, symObjAddr: 0x2328, symBinAddr: 0x10000627C, symSize: 0x14 }
  - { offsetInCU: 0xE984, offset: 0xE984, size: 0x8, addend: 0x0, symName: __ZNSt3__16vectorINS0_IdNS_9allocatorIdEEEENS1_IS3_EEE21_ConstructTransactionC1B7v160006ERS5_m, symObjAddr: 0x233C, symBinAddr: 0x100006290, symSize: 0x3C }
  - { offsetInCU: 0xE9CC, offset: 0xE9CC, size: 0x8, addend: 0x0, symName: __ZNSt3__116allocator_traitsINS_9allocatorINS_6vectorIdNS1_IdEEEEEEE9constructB7v160006IS4_JEvvEEvRS5_PT_DpOT0_, symObjAddr: 0x2378, symBinAddr: 0x1000062CC, symSize: 0x28 }
  - { offsetInCU: 0xEA0B, offset: 0xEA0B, size: 0x8, addend: 0x0, symName: __ZNSt3__16vectorINS0_IdNS_9allocatorIdEEEENS1_IS3_EEE21_ConstructTransactionD1B7v160006Ev, symObjAddr: 0x23A0, symBinAddr: 0x1000062F4, symSize: 0x2C }
  - { offsetInCU: 0xEA35, offset: 0xEA35, size: 0x8, addend: 0x0, symName: __ZNSt3__16vectorINS0_IdNS_9allocatorIdEEEENS1_IS3_EEE21_ConstructTransactionC2B7v160006ERS5_m, symObjAddr: 0x23CC, symBinAddr: 0x100006320, symSize: 0x4C }
  - { offsetInCU: 0xEA7D, offset: 0xEA7D, size: 0x8, addend: 0x0, symName: __ZNSt3__16vectorIdNS_9allocatorIdEEEC1B7v160006Ev, symObjAddr: 0x244C, symBinAddr: 0x1000063A0, symSize: 0x2C }
  - { offsetInCU: 0xEAA7, offset: 0xEAA7, size: 0x8, addend: 0x0, symName: __ZNSt3__16vectorIdNS_9allocatorIdEEEC2B7v160006Ev, symObjAddr: 0x2478, symBinAddr: 0x1000063CC, symSize: 0x58 }
  - { offsetInCU: 0xEAD1, offset: 0xEAD1, size: 0x8, addend: 0x0, symName: __ZNSt3__117__compressed_pairIPdNS_9allocatorIdEEEC1B7v160006IDnNS_18__default_init_tagEEEOT_OT0_, symObjAddr: 0x24D0, symBinAddr: 0x100006424, symSize: 0x3C }
  - { offsetInCU: 0xEB29, offset: 0xEB29, size: 0x8, addend: 0x0, symName: __ZNSt3__117__compressed_pairIPdNS_9allocatorIdEEEC2B7v160006IDnNS_18__default_init_tagEEEOT_OT0_, symObjAddr: 0x251C, symBinAddr: 0x100006470, symSize: 0x40 }
  - { offsetInCU: 0xEB81, offset: 0xEB81, size: 0x8, addend: 0x0, symName: __ZNSt3__122__compressed_pair_elemIPdLi0ELb0EEC2B7v160006IDnvEEOT_, symObjAddr: 0x255C, symBinAddr: 0x1000064B0, symSize: 0x1C }
  - { offsetInCU: 0xEBC3, offset: 0xEBC3, size: 0x8, addend: 0x0, symName: __ZNSt3__122__compressed_pair_elemINS_9allocatorIdEELi1ELb1EEC2B7v160006ENS_18__default_init_tagE, symObjAddr: 0x2578, symBinAddr: 0x1000064CC, symSize: 0x2C }
  - { offsetInCU: 0xEBF7, offset: 0xEBF7, size: 0x8, addend: 0x0, symName: __ZNSt3__19allocatorIdEC2B7v160006Ev, symObjAddr: 0x25A4, symBinAddr: 0x1000064F8, symSize: 0x2C }
  - { offsetInCU: 0xEC21, offset: 0xEC21, size: 0x8, addend: 0x0, symName: __ZNSt3__116__non_trivial_ifILb1ENS_9allocatorIdEEEC2B7v160006Ev, symObjAddr: 0x25D0, symBinAddr: 0x100006524, symSize: 0x14 }
  - { offsetInCU: 0xEC4B, offset: 0xEC4B, size: 0x8, addend: 0x0, symName: __ZNSt3__16vectorINS0_IdNS_9allocatorIdEEEENS1_IS3_EEE21_ConstructTransactionD2B7v160006Ev, symObjAddr: 0x25E4, symBinAddr: 0x100006538, symSize: 0x20 }
  - { offsetInCU: 0xEC75, offset: 0xEC75, size: 0x8, addend: 0x0, symName: __ZNSt3__128__exception_guard_exceptionsINS_6vectorINS1_IdNS_9allocatorIdEEEENS2_IS4_EEE16__destroy_vectorEED2B7v160006Ev, symObjAddr: 0x2604, symBinAddr: 0x100006558, symSize: 0x50 }
  - { offsetInCU: 0xEC9F, offset: 0xEC9F, size: 0x8, addend: 0x0, symName: __ZNSt3__16vectorINS0_IdNS_9allocatorIdEEEENS1_IS3_EEE16__destroy_vectorclB7v160006Ev, symObjAddr: 0x2654, symBinAddr: 0x1000065A8, symSize: 0x9C }
  - { offsetInCU: 0xECC5, offset: 0xECC5, size: 0x8, addend: 0x0, symName: __ZNKSt3__16vectorINS0_IdNS_9allocatorIdEEEENS1_IS3_EEE17__annotate_deleteB7v160006Ev, symObjAddr: 0x26F0, symBinAddr: 0x100006644, symSize: 0xD4 }
  - { offsetInCU: 0xECEB, offset: 0xECEB, size: 0x8, addend: 0x0, symName: __ZNSt3__16vectorINS0_IdNS_9allocatorIdEEEENS1_IS3_EEE7__clearB7v160006Ev, symObjAddr: 0x27D4, symBinAddr: 0x100006728, symSize: 0x28 }
  - { offsetInCU: 0xED11, offset: 0xED11, size: 0x8, addend: 0x0, symName: __ZNSt3__116allocator_traitsINS_9allocatorINS_6vectorIdNS1_IdEEEEEEE10deallocateB7v160006ERS5_PS4_m, symObjAddr: 0x27FC, symBinAddr: 0x100006750, symSize: 0x34 }
  - { offsetInCU: 0xED53, offset: 0xED53, size: 0x8, addend: 0x0, symName: __ZNSt3__16vectorINS0_IdNS_9allocatorIdEEEENS1_IS3_EEE22__base_destruct_at_endB7v160006EPS3_, symObjAddr: 0x2830, symBinAddr: 0x100006784, symSize: 0x8C }
  - { offsetInCU: 0xED97, offset: 0xED97, size: 0x8, addend: 0x0, symName: __ZNSt3__116allocator_traitsINS_9allocatorINS_6vectorIdNS1_IdEEEEEEE7destroyB7v160006IS4_vvEEvRS5_PT_, symObjAddr: 0x28BC, symBinAddr: 0x100006810, symSize: 0x28 }
  - { offsetInCU: 0xEDD1, offset: 0xEDD1, size: 0x8, addend: 0x0, symName: __ZNSt3__19allocatorINS_6vectorIdNS0_IdEEEEE10deallocateB7v160006EPS3_m, symObjAddr: 0x292C, symBinAddr: 0x100006880, symSize: 0x44 }
  - { offsetInCU: 0xEE13, offset: 0xEE13, size: 0x8, addend: 0x0, symName: __ZNSt3__16vectorIdNS_9allocatorIdEEE8__appendEm, symObjAddr: 0x2A78, symBinAddr: 0x1000069CC, symSize: 0x108 }
  - { offsetInCU: 0xEE6E, offset: 0xEE6E, size: 0x8, addend: 0x0, symName: __ZNSt3__16vectorIdNS_9allocatorIdEEE17__destruct_at_endB7v160006EPd, symObjAddr: 0x2B80, symBinAddr: 0x100006AD4, symSize: 0x60 }
  - { offsetInCU: 0xEEB2, offset: 0xEEB2, size: 0x8, addend: 0x0, symName: __ZNSt3__16vectorIdNS_9allocatorIdEEE9__end_capB7v160006Ev, symObjAddr: 0x2BE0, symBinAddr: 0x100006B34, symSize: 0x28 }
  - { offsetInCU: 0xEED8, offset: 0xEED8, size: 0x8, addend: 0x0, symName: __ZNSt3__16vectorIdNS_9allocatorIdEEE18__construct_at_endEm, symObjAddr: 0x2C08, symBinAddr: 0x100006B5C, symSize: 0xC8 }
  - { offsetInCU: 0xEF4A, offset: 0xEF4A, size: 0x8, addend: 0x0, symName: __ZNSt3__16vectorIdNS_9allocatorIdEEE7__allocB7v160006Ev, symObjAddr: 0x2CD0, symBinAddr: 0x100006C24, symSize: 0x28 }
  - { offsetInCU: 0xEF70, offset: 0xEF70, size: 0x8, addend: 0x0, symName: __ZNKSt3__16vectorIdNS_9allocatorIdEEE11__recommendB7v160006Em, symObjAddr: 0x2CF8, symBinAddr: 0x100006C4C, symSize: 0xB4 }
  - { offsetInCU: 0xEFC5, offset: 0xEFC5, size: 0x8, addend: 0x0, symName: __ZNSt3__114__split_bufferIdRNS_9allocatorIdEEEC1EmmS3_, symObjAddr: 0x2DAC, symBinAddr: 0x100006D00, symSize: 0x44 }
  - { offsetInCU: 0xF01B, offset: 0xF01B, size: 0x8, addend: 0x0, symName: __ZNSt3__114__split_bufferIdRNS_9allocatorIdEEE18__construct_at_endEm, symObjAddr: 0x2DF0, symBinAddr: 0x100006D44, symSize: 0xB4 }
  - { offsetInCU: 0xF05E, offset: 0xF05E, size: 0x8, addend: 0x0, symName: __ZNSt3__114__split_bufferIdRNS_9allocatorIdEEED1Ev, symObjAddr: 0x2FBC, symBinAddr: 0x100006F10, symSize: 0x2C }
  - { offsetInCU: 0xF08A, offset: 0xF08A, size: 0x8, addend: 0x0, symName: __ZNSt3__117__compressed_pairIPdNS_9allocatorIdEEE5firstB7v160006Ev, symObjAddr: 0x2FE8, symBinAddr: 0x100006F3C, symSize: 0x24 }
  - { offsetInCU: 0xF0B0, offset: 0xF0B0, size: 0x8, addend: 0x0, symName: __ZNSt3__122__compressed_pair_elemIPdLi0ELb0EE5__getB7v160006Ev, symObjAddr: 0x300C, symBinAddr: 0x100006F60, symSize: 0x14 }
  - { offsetInCU: 0xF0EF, offset: 0xF0EF, size: 0x8, addend: 0x0, symName: __ZNSt3__16vectorIdNS_9allocatorIdEEE21_ConstructTransactionC1B7v160006ERS3_m, symObjAddr: 0x3020, symBinAddr: 0x100006F74, symSize: 0x3C }
  - { offsetInCU: 0xF137, offset: 0xF137, size: 0x8, addend: 0x0, symName: __ZNSt3__116allocator_traitsINS_9allocatorIdEEE9constructB7v160006IdJEvvEEvRS2_PT_DpOT0_, symObjAddr: 0x305C, symBinAddr: 0x100006FB0, symSize: 0x28 }
  - { offsetInCU: 0xF176, offset: 0xF176, size: 0x8, addend: 0x0, symName: __ZNSt3__16vectorIdNS_9allocatorIdEEE21_ConstructTransactionD1B7v160006Ev, symObjAddr: 0x3098, symBinAddr: 0x100006FEC, symSize: 0x2C }
  - { offsetInCU: 0xF1A0, offset: 0xF1A0, size: 0x8, addend: 0x0, symName: __ZNSt3__16vectorIdNS_9allocatorIdEEE21_ConstructTransactionC2B7v160006ERS3_m, symObjAddr: 0x30C4, symBinAddr: 0x100007018, symSize: 0x44 }
  - { offsetInCU: 0xF1E8, offset: 0xF1E8, size: 0x8, addend: 0x0, symName: __ZNSt3__16vectorIdNS_9allocatorIdEEE21_ConstructTransactionD2B7v160006Ev, symObjAddr: 0x312C, symBinAddr: 0x100007080, symSize: 0x20 }
  - { offsetInCU: 0xF212, offset: 0xF212, size: 0x8, addend: 0x0, symName: __ZNSt3__117__compressed_pairIPdNS_9allocatorIdEEE6secondB7v160006Ev, symObjAddr: 0x314C, symBinAddr: 0x1000070A0, symSize: 0x24 }
  - { offsetInCU: 0xF238, offset: 0xF238, size: 0x8, addend: 0x0, symName: __ZNSt3__122__compressed_pair_elemINS_9allocatorIdEELi1ELb1EE5__getB7v160006Ev, symObjAddr: 0x3170, symBinAddr: 0x1000070C4, symSize: 0x14 }
  - { offsetInCU: 0xF25E, offset: 0xF25E, size: 0x8, addend: 0x0, symName: __ZNKSt3__16vectorIdNS_9allocatorIdEEE8max_sizeEv, symObjAddr: 0x3184, symBinAddr: 0x1000070D8, symSize: 0x60 }
  - { offsetInCU: 0xF286, offset: 0xF286, size: 0x8, addend: 0x0, symName: __ZNKSt3__16vectorIdNS_9allocatorIdEEE20__throw_length_errorB7v160006Ev, symObjAddr: 0x31E4, symBinAddr: 0x100007138, symSize: 0x1C }
  - { offsetInCU: 0xF2AC, offset: 0xF2AC, size: 0x8, addend: 0x0, symName: __ZNKSt3__16vectorIdNS_9allocatorIdEEE8capacityB7v160006Ev, symObjAddr: 0x3200, symBinAddr: 0x100007154, symSize: 0x40 }
  - { offsetInCU: 0xF2DC, offset: 0xF2DC, size: 0x8, addend: 0x0, symName: __ZNSt3__116allocator_traitsINS_9allocatorIdEEE8max_sizeB7v160006IS2_vvEEmRKS2_, symObjAddr: 0x326C, symBinAddr: 0x1000071C0, symSize: 0x28 }
  - { offsetInCU: 0xF307, offset: 0xF307, size: 0x8, addend: 0x0, symName: __ZNKSt3__16vectorIdNS_9allocatorIdEEE7__allocB7v160006Ev, symObjAddr: 0x3294, symBinAddr: 0x1000071E8, symSize: 0x28 }
  - { offsetInCU: 0xF32D, offset: 0xF32D, size: 0x8, addend: 0x0, symName: __ZNKSt3__117__compressed_pairIPdNS_9allocatorIdEEE6secondB7v160006Ev, symObjAddr: 0x32BC, symBinAddr: 0x100007210, symSize: 0x24 }
  - { offsetInCU: 0xF353, offset: 0xF353, size: 0x8, addend: 0x0, symName: __ZNKSt3__122__compressed_pair_elemINS_9allocatorIdEELi1ELb1EE5__getB7v160006Ev, symObjAddr: 0x32E0, symBinAddr: 0x100007234, symSize: 0x14 }
  - { offsetInCU: 0xF379, offset: 0xF379, size: 0x8, addend: 0x0, symName: __ZNKSt3__16vectorIdNS_9allocatorIdEEE9__end_capB7v160006Ev, symObjAddr: 0x32F4, symBinAddr: 0x100007248, symSize: 0x28 }
  - { offsetInCU: 0xF39F, offset: 0xF39F, size: 0x8, addend: 0x0, symName: __ZNKSt3__117__compressed_pairIPdNS_9allocatorIdEEE5firstB7v160006Ev, symObjAddr: 0x331C, symBinAddr: 0x100007270, symSize: 0x24 }
  - { offsetInCU: 0xF3C5, offset: 0xF3C5, size: 0x8, addend: 0x0, symName: __ZNKSt3__122__compressed_pair_elemIPdLi0ELb0EE5__getB7v160006Ev, symObjAddr: 0x3340, symBinAddr: 0x100007294, symSize: 0x14 }
  - { offsetInCU: 0xF3EB, offset: 0xF3EB, size: 0x8, addend: 0x0, symName: __ZNSt3__114__split_bufferIdRNS_9allocatorIdEEEC2EmmS3_, symObjAddr: 0x33A8, symBinAddr: 0x1000072FC, symSize: 0xD4 }
  - { offsetInCU: 0xF45E, offset: 0xF45E, size: 0x8, addend: 0x0, symName: __ZNSt3__117__compressed_pairIPdRNS_9allocatorIdEEEC1B7v160006IDnS4_EEOT_OT0_, symObjAddr: 0x347C, symBinAddr: 0x1000073D0, symSize: 0x3C }
  - { offsetInCU: 0xF4B6, offset: 0xF4B6, size: 0x8, addend: 0x0, symName: __ZNSt3__114__split_bufferIdRNS_9allocatorIdEEE7__allocB7v160006Ev, symObjAddr: 0x34F8, symBinAddr: 0x10000744C, symSize: 0x28 }
  - { offsetInCU: 0xF4DC, offset: 0xF4DC, size: 0x8, addend: 0x0, symName: __ZNSt3__114__split_bufferIdRNS_9allocatorIdEEE9__end_capB7v160006Ev, symObjAddr: 0x3520, symBinAddr: 0x100007474, symSize: 0x28 }
  - { offsetInCU: 0xF502, offset: 0xF502, size: 0x8, addend: 0x0, symName: __ZNSt3__117__compressed_pairIPdRNS_9allocatorIdEEEC2B7v160006IDnS4_EEOT_OT0_, symObjAddr: 0x3548, symBinAddr: 0x10000749C, symSize: 0x48 }
  - { offsetInCU: 0xF55A, offset: 0xF55A, size: 0x8, addend: 0x0, symName: __ZNSt3__122__compressed_pair_elemIRNS_9allocatorIdEELi1ELb0EEC2B7v160006IS3_vEEOT_, symObjAddr: 0x3590, symBinAddr: 0x1000074E4, symSize: 0x20 }
  - { offsetInCU: 0xF59C, offset: 0xF59C, size: 0x8, addend: 0x0, symName: __ZNSt3__19allocatorIdE8allocateB7v160006Em, symObjAddr: 0x35B0, symBinAddr: 0x100007504, symSize: 0x58 }
  - { offsetInCU: 0xF5D0, offset: 0xF5D0, size: 0x8, addend: 0x0, symName: __ZNSt3__117__compressed_pairIPdRNS_9allocatorIdEEE6secondB7v160006Ev, symObjAddr: 0x3608, symBinAddr: 0x10000755C, symSize: 0x28 }
  - { offsetInCU: 0xF5F6, offset: 0xF5F6, size: 0x8, addend: 0x0, symName: __ZNSt3__122__compressed_pair_elemIRNS_9allocatorIdEELi1ELb0EE5__getB7v160006Ev, symObjAddr: 0x3630, symBinAddr: 0x100007584, symSize: 0x18 }
  - { offsetInCU: 0xF61C, offset: 0xF61C, size: 0x8, addend: 0x0, symName: __ZNSt3__117__compressed_pairIPdRNS_9allocatorIdEEE5firstB7v160006Ev, symObjAddr: 0x3648, symBinAddr: 0x10000759C, symSize: 0x24 }
  - { offsetInCU: 0xF64C, offset: 0xF64C, size: 0x8, addend: 0x0, symName: __ZNSt3__114__split_bufferIdRNS_9allocatorIdEEE21_ConstructTransactionC1B7v160006EPPdm, symObjAddr: 0x366C, symBinAddr: 0x1000075C0, symSize: 0x3C }
  - { offsetInCU: 0xF692, offset: 0xF692, size: 0x8, addend: 0x0, symName: __ZNSt3__114__split_bufferIdRNS_9allocatorIdEEE21_ConstructTransactionD1B7v160006Ev, symObjAddr: 0x36A8, symBinAddr: 0x1000075FC, symSize: 0x2C }
  - { offsetInCU: 0xF6BC, offset: 0xF6BC, size: 0x8, addend: 0x0, symName: __ZNSt3__114__split_bufferIdRNS_9allocatorIdEEE21_ConstructTransactionC2B7v160006EPPdm, symObjAddr: 0x36D4, symBinAddr: 0x100007628, symSize: 0x44 }
  - { offsetInCU: 0xF702, offset: 0xF702, size: 0x8, addend: 0x0, symName: __ZNSt3__114__split_bufferIdRNS_9allocatorIdEEE21_ConstructTransactionD2B7v160006Ev, symObjAddr: 0x3718, symBinAddr: 0x10000766C, symSize: 0x20 }
  - { offsetInCU: 0xF72C, offset: 0xF72C, size: 0x8, addend: 0x0, symName: __ZNKSt3__16vectorIdNS_9allocatorIdEEE17__annotate_deleteB7v160006Ev, symObjAddr: 0x3738, symBinAddr: 0x10000768C, symSize: 0xB8 }
  - { offsetInCU: 0xF752, offset: 0xF752, size: 0x8, addend: 0x0, symName: __ZNSt3__116reverse_iteratorIPdEC1B7v160006ES1_, symObjAddr: 0x3868, symBinAddr: 0x1000077BC, symSize: 0x34 }
  - { offsetInCU: 0xF78A, offset: 0xF78A, size: 0x8, addend: 0x0, symName: __ZNKSt3__116reverse_iteratorIPdE4baseB7v160006Ev, symObjAddr: 0x389C, symBinAddr: 0x1000077F0, symSize: 0x18 }
  - { offsetInCU: 0xF7B0, offset: 0xF7B0, size: 0x8, addend: 0x0, symName: __ZNKSt3__16vectorIdNS_9allocatorIdEEE14__annotate_newB7v160006Em, symObjAddr: 0x38F0, symBinAddr: 0x100007844, symSize: 0xAC }
  - { offsetInCU: 0xF7E5, offset: 0xF7E5, size: 0x8, addend: 0x0, symName: __ZNKSt3__16vectorIdNS_9allocatorIdEEE31__annotate_contiguous_containerB7v160006EPKvS5_S5_S5_, symObjAddr: 0x39AC, symBinAddr: 0x100007900, symSize: 0x20 }
  - { offsetInCU: 0xF837, offset: 0xF837, size: 0x8, addend: 0x0, symName: __ZNKSt3__16vectorIdNS_9allocatorIdEEE4dataB7v160006Ev, symObjAddr: 0x39CC, symBinAddr: 0x100007920, symSize: 0x28 }
  - { offsetInCU: 0xF881, offset: 0xF881, size: 0x8, addend: 0x0, symName: __ZNKSt3__111__move_loopINS_17_ClassicAlgPolicyEEclB7v160006INS_16reverse_iteratorIPdEES6_S6_EENS_4pairIT_T1_EES8_T0_S9_, symObjAddr: 0x3CAC, symBinAddr: 0x100007C00, symSize: 0xA0 }
  - { offsetInCU: 0xF8EC, offset: 0xF8EC, size: 0x8, addend: 0x0, symName: __ZNSt3__119__unwrap_range_implINS_16reverse_iteratorIPdEES3_E8__unwrapB7v160006ES3_S3_, symObjAddr: 0x3E98, symBinAddr: 0x100007DEC, symSize: 0x84 }
  - { offsetInCU: 0xF923, offset: 0xF923, size: 0x8, addend: 0x0, symName: __ZNSt3__14pairINS_16reverse_iteratorIPdEES3_EC1B7v160006IS3_S3_LPv0EEEOT_OT0_, symObjAddr: 0x3F1C, symBinAddr: 0x100007E70, symSize: 0x3C }
  - { offsetInCU: 0xF981, offset: 0xF981, size: 0x8, addend: 0x0, symName: __ZNSt3__14pairINS_16reverse_iteratorIPdEES3_EC2B7v160006IS3_S3_LPv0EEEOT_OT0_, symObjAddr: 0x3F58, symBinAddr: 0x100007EAC, symSize: 0x34 }
  - { offsetInCU: 0xF9E5, offset: 0xF9E5, size: 0x8, addend: 0x0, symName: __ZNSt3__18_IterOpsINS_17_ClassicAlgPolicyEE11__iter_moveB7v160006IRNS_16reverse_iteratorIPdEEEENS_9enable_ifIXsr12is_referenceIDTdeclsr3stdE7declvalIRT_EEEEE5valueEDTclsr3stdE4movedeclsr3stdE7declvalISA_EEEEE4typeEOS9_, symObjAddr: 0x3FD4, symBinAddr: 0x100007F28, symSize: 0x28 }
  - { offsetInCU: 0xFA11, offset: 0xFA11, size: 0x8, addend: 0x0, symName: __ZNKSt3__116reverse_iteratorIPdEdeB7v160006Ev, symObjAddr: 0x3FFC, symBinAddr: 0x100007F50, symSize: 0x28 }
  - { offsetInCU: 0xFA45, offset: 0xFA45, size: 0x8, addend: 0x0, symName: __ZNSt3__116reverse_iteratorIPdEppB7v160006Ev, symObjAddr: 0x4024, symBinAddr: 0x100007F78, symSize: 0x20 }
  - { offsetInCU: 0xFA6B, offset: 0xFA6B, size: 0x8, addend: 0x0, symName: __ZNSt3__18_IterOpsINS_17_ClassicAlgPolicyEE25__validate_iter_referenceB7v160006IRNS_16reverse_iteratorIPdEEEEvv, symObjAddr: 0x4044, symBinAddr: 0x100007F98, symSize: 0x4 }
  - { offsetInCU: 0xFA89, offset: 0xFA89, size: 0x8, addend: 0x0, symName: __ZNSt3__118__unwrap_iter_implINS_16reverse_iteratorIPdEELb0EE8__unwrapB7v160006ES3_, symObjAddr: 0x4048, symBinAddr: 0x100007F9C, symSize: 0x24 }
  - { offsetInCU: 0xFAAC, offset: 0xFAAC, size: 0x8, addend: 0x0, symName: __ZNSt3__119__unwrap_range_implINS_16reverse_iteratorIPdEES3_E8__rewrapB7v160006ES3_S3_, symObjAddr: 0x406C, symBinAddr: 0x100007FC0, symSize: 0x5C }
  - { offsetInCU: 0xFADD, offset: 0xFADD, size: 0x8, addend: 0x0, symName: __ZNSt3__118__unwrap_iter_implINS_16reverse_iteratorIPdEELb0EE8__rewrapB7v160006ES3_S3_, symObjAddr: 0x40C8, symBinAddr: 0x10000801C, symSize: 0x2C }
  - { offsetInCU: 0xFB0A, offset: 0xFB0A, size: 0x8, addend: 0x0, symName: __ZNSt3__116reverse_iteratorIPdEC2B7v160006ES1_, symObjAddr: 0x40F4, symBinAddr: 0x100008048, symSize: 0x28 }
  - { offsetInCU: 0xFB42, offset: 0xFB42, size: 0x8, addend: 0x0, symName: __ZNSt3__114__split_bufferIdRNS_9allocatorIdEEED2Ev, symObjAddr: 0x411C, symBinAddr: 0x100008070, symSize: 0x8C }
  - { offsetInCU: 0xFB6E, offset: 0xFB6E, size: 0x8, addend: 0x0, symName: __ZNSt3__114__split_bufferIdRNS_9allocatorIdEEE5clearB7v160006Ev, symObjAddr: 0x41A8, symBinAddr: 0x1000080FC, symSize: 0x28 }
  - { offsetInCU: 0xFB94, offset: 0xFB94, size: 0x8, addend: 0x0, symName: __ZNSt3__116allocator_traitsINS_9allocatorIdEEE10deallocateB7v160006ERS2_Pdm, symObjAddr: 0x41D0, symBinAddr: 0x100008124, symSize: 0x34 }
  - { offsetInCU: 0xFBD6, offset: 0xFBD6, size: 0x8, addend: 0x0, symName: __ZNKSt3__114__split_bufferIdRNS_9allocatorIdEEE8capacityB7v160006Ev, symObjAddr: 0x4204, symBinAddr: 0x100008158, symSize: 0x40 }
  - { offsetInCU: 0xFBFC, offset: 0xFBFC, size: 0x8, addend: 0x0, symName: __ZNSt3__114__split_bufferIdRNS_9allocatorIdEEE17__destruct_at_endB7v160006EPd, symObjAddr: 0x4244, symBinAddr: 0x100008198, symSize: 0x2C }
  - { offsetInCU: 0xFC30, offset: 0xFC30, size: 0x8, addend: 0x0, symName: __ZNSt3__114__split_bufferIdRNS_9allocatorIdEEE17__destruct_at_endB7v160006EPdNS_17integral_constantIbLb0EEE, symObjAddr: 0x4270, symBinAddr: 0x1000081C4, symSize: 0x80 }
  - { offsetInCU: 0xFC70, offset: 0xFC70, size: 0x8, addend: 0x0, symName: __ZNSt3__116allocator_traitsINS_9allocatorIdEEE7destroyB7v160006IdvvEEvRS2_PT_, symObjAddr: 0x42F0, symBinAddr: 0x100008244, symSize: 0x28 }
  - { offsetInCU: 0xFCAA, offset: 0xFCAA, size: 0x8, addend: 0x0, symName: __ZNSt3__19allocatorIdE10deallocateB7v160006EPdm, symObjAddr: 0x434C, symBinAddr: 0x1000082A0, symSize: 0x40 }
  - { offsetInCU: 0xFCEC, offset: 0xFCEC, size: 0x8, addend: 0x0, symName: __ZNKSt3__114__split_bufferIdRNS_9allocatorIdEEE9__end_capB7v160006Ev, symObjAddr: 0x438C, symBinAddr: 0x1000082E0, symSize: 0x28 }
  - { offsetInCU: 0xFD12, offset: 0xFD12, size: 0x8, addend: 0x0, symName: __ZNKSt3__117__compressed_pairIPdRNS_9allocatorIdEEE5firstB7v160006Ev, symObjAddr: 0x43B4, symBinAddr: 0x100008308, symSize: 0x24 }
  - { offsetInCU: 0xFD38, offset: 0xFD38, size: 0x8, addend: 0x0, symName: __ZNSt3__16vectorIdNS_9allocatorIdEEE27__invalidate_iterators_pastB7v160006EPd, symObjAddr: 0x43D8, symBinAddr: 0x10000832C, symSize: 0x14 }
  - { offsetInCU: 0xFD6F, offset: 0xFD6F, size: 0x8, addend: 0x0, symName: __ZNSt3__16vectorIdNS_9allocatorIdEEE22__base_destruct_at_endB7v160006EPd, symObjAddr: 0x43EC, symBinAddr: 0x100008340, symSize: 0x8C }
  - { offsetInCU: 0xFDB3, offset: 0xFDB3, size: 0x8, addend: 0x0, symName: __ZNKSt3__16vectorIdNS_9allocatorIdEEE17__annotate_shrinkB7v160006Em, symObjAddr: 0x4478, symBinAddr: 0x1000083CC, symSize: 0xB4 }
  - { offsetInCU: 0xFDE8, offset: 0xFDE8, size: 0x8, addend: 0x0, symName: __ZNSt3__16vectorINS0_IdNS_9allocatorIdEEEENS1_IS3_EEED2B7v160006Ev, symObjAddr: 0x452C, symBinAddr: 0x100008480, symSize: 0x44 }
  - { offsetInCU: 0xFE12, offset: 0xFE12, size: 0x8, addend: 0x0, symName: __ZNSt3__16vectorIdNS_9allocatorIdEEEC2B7v160006ESt16initializer_listIdE, symObjAddr: 0x4570, symBinAddr: 0x1000084C4, symSize: 0x128 }
  - { offsetInCU: 0xFE62, offset: 0xFE62, size: 0x8, addend: 0x0, symName: __ZNSt3__16vectorIdNS_9allocatorIdEEE16__destroy_vectorC1ERS3_, symObjAddr: 0x46D8, symBinAddr: 0x10000862C, symSize: 0x34 }
  - { offsetInCU: 0xFE9B, offset: 0xFE9B, size: 0x8, addend: 0x0, symName: __ZNKSt16initializer_listIdE4sizeB7v160006Ev, symObjAddr: 0x470C, symBinAddr: 0x100008660, symSize: 0x18 }
  - { offsetInCU: 0xFEC1, offset: 0xFEC1, size: 0x8, addend: 0x0, symName: __ZNSt3__16vectorIdNS_9allocatorIdEEE11__vallocateB7v160006Em, symObjAddr: 0x4724, symBinAddr: 0x100008678, symSize: 0xAC }
  - { offsetInCU: 0xFF05, offset: 0xFF05, size: 0x8, addend: 0x0, symName: __ZNSt3__16vectorIdNS_9allocatorIdEEE18__construct_at_endIPKdLi0EEEvT_S7_m, symObjAddr: 0x47D0, symBinAddr: 0x100008724, symSize: 0x8C }
  - { offsetInCU: 0xFF78, offset: 0xFF78, size: 0x8, addend: 0x0, symName: __ZNKSt16initializer_listIdE5beginB7v160006Ev, symObjAddr: 0x485C, symBinAddr: 0x1000087B0, symSize: 0x18 }
  - { offsetInCU: 0xFF9E, offset: 0xFF9E, size: 0x8, addend: 0x0, symName: __ZNKSt16initializer_listIdE3endB7v160006Ev, symObjAddr: 0x4874, symBinAddr: 0x1000087C8, symSize: 0x20 }
  - { offsetInCU: 0xFFC4, offset: 0xFFC4, size: 0x8, addend: 0x0, symName: __ZNSt3__128__exception_guard_exceptionsINS_6vectorIdNS_9allocatorIdEEE16__destroy_vectorEE10__completeB7v160006Ev, symObjAddr: 0x4894, symBinAddr: 0x1000087E8, symSize: 0x1C }
  - { offsetInCU: 0xFFEA, offset: 0xFFEA, size: 0x8, addend: 0x0, symName: __ZNSt3__128__exception_guard_exceptionsINS_6vectorIdNS_9allocatorIdEEE16__destroy_vectorEED1B7v160006Ev, symObjAddr: 0x48B0, symBinAddr: 0x100008804, symSize: 0x2C }
  - { offsetInCU: 0x10014, offset: 0x10014, size: 0x8, addend: 0x0, symName: __ZNSt3__128__exception_guard_exceptionsINS_6vectorIdNS_9allocatorIdEEE16__destroy_vectorEEC1B7v160006ES5_, symObjAddr: 0x48DC, symBinAddr: 0x100008830, symSize: 0x34 }
  - { offsetInCU: 0x1004C, offset: 0x1004C, size: 0x8, addend: 0x0, symName: __ZNSt3__128__exception_guard_exceptionsINS_6vectorIdNS_9allocatorIdEEE16__destroy_vectorEEC2B7v160006ES5_, symObjAddr: 0x4910, symBinAddr: 0x100008864, symSize: 0x24 }
  - { offsetInCU: 0x10084, offset: 0x10084, size: 0x8, addend: 0x0, symName: __ZNSt3__16vectorIdNS_9allocatorIdEEE16__destroy_vectorC2ERS3_, symObjAddr: 0x4934, symBinAddr: 0x100008888, symSize: 0x20 }
  - { offsetInCU: 0x100E1, offset: 0x100E1, size: 0x8, addend: 0x0, symName: __ZNKSt3__114__copy_trivialclB7v160006IKddLi0EEENS_4pairIPT_PT0_EES5_S5_S7_, symObjAddr: 0x4B44, symBinAddr: 0x100008A98, symSize: 0x48 }
  - { offsetInCU: 0x10163, offset: 0x10163, size: 0x8, addend: 0x0, symName: __ZNSt3__119__unwrap_range_implIPKdS2_E8__unwrapB7v160006ES2_S2_, symObjAddr: 0x4C50, symBinAddr: 0x100008BA4, symSize: 0x58 }
  - { offsetInCU: 0x1019A, offset: 0x1019A, size: 0x8, addend: 0x0, symName: __ZNSt3__14pairIPKdS2_EC1B7v160006IS2_S2_LPv0EEEOT_OT0_, symObjAddr: 0x4CCC, symBinAddr: 0x100008C20, symSize: 0x3C }
  - { offsetInCU: 0x101F8, offset: 0x101F8, size: 0x8, addend: 0x0, symName: __ZNSt3__118__unwrap_iter_implIPKdLb1EE8__unwrapB7v160006ES2_, symObjAddr: 0x4D08, symBinAddr: 0x100008C5C, symSize: 0x24 }
  - { offsetInCU: 0x1021B, offset: 0x1021B, size: 0x8, addend: 0x0, symName: __ZNSt3__14pairIPKdS2_EC2B7v160006IS2_S2_LPv0EEEOT_OT0_, symObjAddr: 0x4D40, symBinAddr: 0x100008C94, symSize: 0x34 }
  - { offsetInCU: 0x10284, offset: 0x10284, size: 0x8, addend: 0x0, symName: __ZNSt3__14pairIPKdPdEC1B7v160006IRS2_S3_LPv0EEEOT_OT0_, symObjAddr: 0x4E30, symBinAddr: 0x100008D84, symSize: 0x3C }
  - { offsetInCU: 0x102E2, offset: 0x102E2, size: 0x8, addend: 0x0, symName: __ZNSt3__14pairIPKdPdEC2B7v160006IRS2_S3_LPv0EEEOT_OT0_, symObjAddr: 0x4E6C, symBinAddr: 0x100008DC0, symSize: 0x34 }
  - { offsetInCU: 0x10340, offset: 0x10340, size: 0x8, addend: 0x0, symName: __ZNSt3__118__unwrap_iter_implIPdLb1EE8__unwrapB7v160006ES1_, symObjAddr: 0x4EA0, symBinAddr: 0x100008DF4, symSize: 0x24 }
  - { offsetInCU: 0x10363, offset: 0x10363, size: 0x8, addend: 0x0, symName: __ZNSt3__14pairIPKdPdEC1B7v160006IS2_S3_LPv0EEEOT_OT0_, symObjAddr: 0x4EC4, symBinAddr: 0x100008E18, symSize: 0x3C }
  - { offsetInCU: 0x103C1, offset: 0x103C1, size: 0x8, addend: 0x0, symName: __ZNSt3__14pairIPKdPdEC2B7v160006IS2_S3_LPv0EEEOT_OT0_, symObjAddr: 0x4F00, symBinAddr: 0x100008E54, symSize: 0x34 }
  - { offsetInCU: 0x1041F, offset: 0x1041F, size: 0x8, addend: 0x0, symName: __ZNSt3__119__unwrap_range_implIPKdS2_E8__rewrapB7v160006ES2_S2_, symObjAddr: 0x4F34, symBinAddr: 0x100008E88, symSize: 0x2C }
  - { offsetInCU: 0x10450, offset: 0x10450, size: 0x8, addend: 0x0, symName: __ZNSt3__118__unwrap_iter_implIPKdLb1EE8__rewrapB7v160006ES2_S2_, symObjAddr: 0x4F9C, symBinAddr: 0x100008EF0, symSize: 0x50 }
  - { offsetInCU: 0x10481, offset: 0x10481, size: 0x8, addend: 0x0, symName: __ZNSt3__118__unwrap_iter_implIPdLb1EE8__rewrapB7v160006ES1_S1_, symObjAddr: 0x4FEC, symBinAddr: 0x100008F40, symSize: 0x50 }
  - { offsetInCU: 0x104B2, offset: 0x104B2, size: 0x8, addend: 0x0, symName: __ZNSt3__128__exception_guard_exceptionsINS_6vectorIdNS_9allocatorIdEEE16__destroy_vectorEED2B7v160006Ev, symObjAddr: 0x503C, symBinAddr: 0x100008F90, symSize: 0x50 }
  - { offsetInCU: 0x104DC, offset: 0x104DC, size: 0x8, addend: 0x0, symName: __ZNSt3__16vectorIdNS_9allocatorIdEEE16__destroy_vectorclB7v160006Ev, symObjAddr: 0x508C, symBinAddr: 0x100008FE0, symSize: 0x9C }
  - { offsetInCU: 0x10502, offset: 0x10502, size: 0x8, addend: 0x0, symName: __ZNSt3__16vectorIdNS_9allocatorIdEEE7__clearB7v160006Ev, symObjAddr: 0x5138, symBinAddr: 0x10000908C, symSize: 0x28 }
  - { offsetInCU: 0x10528, offset: 0x10528, size: 0x8, addend: 0x0, symName: __ZNSt3__16vectorIdNS_9allocatorIdEEED2B7v160006Ev, symObjAddr: 0x5160, symBinAddr: 0x1000090B4, symSize: 0x44 }
  - { offsetInCU: 0x10552, offset: 0x10552, size: 0x8, addend: 0x0, symName: __ZNSt3__16vectorINS0_IdNS_9allocatorIdEEEENS1_IS3_EEEC2B7v160006ESt16initializer_listIS3_E, symObjAddr: 0x51A4, symBinAddr: 0x1000090F8, symSize: 0x128 }
  - { offsetInCU: 0x105A2, offset: 0x105A2, size: 0x8, addend: 0x0, symName: __ZNKSt16initializer_listINSt3__16vectorIdNS0_9allocatorIdEEEEE4sizeB7v160006Ev, symObjAddr: 0x52CC, symBinAddr: 0x100009220, symSize: 0x18 }
  - { offsetInCU: 0x105C8, offset: 0x105C8, size: 0x8, addend: 0x0, symName: __ZNSt3__16vectorINS0_IdNS_9allocatorIdEEEENS1_IS3_EEE18__construct_at_endIPKS3_Li0EEEvT_S9_m, symObjAddr: 0x52E4, symBinAddr: 0x100009238, symSize: 0x8C }
  - { offsetInCU: 0x1063B, offset: 0x1063B, size: 0x8, addend: 0x0, symName: __ZNKSt16initializer_listINSt3__16vectorIdNS0_9allocatorIdEEEEE5beginB7v160006Ev, symObjAddr: 0x5370, symBinAddr: 0x1000092C4, symSize: 0x18 }
  - { offsetInCU: 0x10661, offset: 0x10661, size: 0x8, addend: 0x0, symName: __ZNKSt16initializer_listINSt3__16vectorIdNS0_9allocatorIdEEEEE3endB7v160006Ev, symObjAddr: 0x5388, symBinAddr: 0x1000092DC, symSize: 0x28 }
  - { offsetInCU: 0x10687, offset: 0x10687, size: 0x8, addend: 0x0, symName: __ZNSt3__129_AllocatorDestroyRangeReverseINS_9allocatorINS_6vectorIdNS1_IdEEEEEEPS4_EC1B7v160006ERS5_RS6_S9_, symObjAddr: 0x54F0, symBinAddr: 0x100009444, symSize: 0x44 }
  - { offsetInCU: 0x106DE, offset: 0x106DE, size: 0x8, addend: 0x0, symName: __ZNSt3__116allocator_traitsINS_9allocatorINS_6vectorIdNS1_IdEEEEEEE9constructB7v160006IS4_JRKS4_EvvEEvRS5_PT_DpOT0_, symObjAddr: 0x5534, symBinAddr: 0x100009488, symSize: 0x30 }
  - { offsetInCU: 0x10732, offset: 0x10732, size: 0x8, addend: 0x0, symName: __ZNSt3__128__exception_guard_exceptionsINS_29_AllocatorDestroyRangeReverseINS_9allocatorINS_6vectorIdNS2_IdEEEEEEPS5_EEE10__completeB7v160006Ev, symObjAddr: 0x5564, symBinAddr: 0x1000094B8, symSize: 0x1C }
  - { offsetInCU: 0x10758, offset: 0x10758, size: 0x8, addend: 0x0, symName: __ZNSt3__128__exception_guard_exceptionsINS_29_AllocatorDestroyRangeReverseINS_9allocatorINS_6vectorIdNS2_IdEEEEEEPS5_EEED1B7v160006Ev, symObjAddr: 0x5580, symBinAddr: 0x1000094D4, symSize: 0x2C }
  - { offsetInCU: 0x10782, offset: 0x10782, size: 0x8, addend: 0x0, symName: __ZNSt3__128__exception_guard_exceptionsINS_29_AllocatorDestroyRangeReverseINS_9allocatorINS_6vectorIdNS2_IdEEEEEEPS5_EEEC1B7v160006ES8_, symObjAddr: 0x55AC, symBinAddr: 0x100009500, symSize: 0x34 }
  - { offsetInCU: 0x107BB, offset: 0x107BB, size: 0x8, addend: 0x0, symName: __ZNSt3__128__exception_guard_exceptionsINS_29_AllocatorDestroyRangeReverseINS_9allocatorINS_6vectorIdNS2_IdEEEEEEPS5_EEEC2B7v160006ES8_, symObjAddr: 0x55E0, symBinAddr: 0x100009534, symSize: 0x30 }
  - { offsetInCU: 0x107F4, offset: 0x107F4, size: 0x8, addend: 0x0, symName: __ZNSt3__129_AllocatorDestroyRangeReverseINS_9allocatorINS_6vectorIdNS1_IdEEEEEEPS4_EC2B7v160006ERS5_RS6_S9_, symObjAddr: 0x5610, symBinAddr: 0x100009564, symSize: 0x38 }
  - { offsetInCU: 0x1084B, offset: 0x1084B, size: 0x8, addend: 0x0, symName: __ZNSt3__16vectorIdNS_9allocatorIdEEEC1ERKS3_, symObjAddr: 0x5684, symBinAddr: 0x1000095D8, symSize: 0x34 }
  - { offsetInCU: 0x10886, offset: 0x10886, size: 0x8, addend: 0x0, symName: __ZNSt3__16vectorIdNS_9allocatorIdEEEC2ERKS3_, symObjAddr: 0x56B8, symBinAddr: 0x10000960C, symSize: 0x110 }
  - { offsetInCU: 0x108E5, offset: 0x108E5, size: 0x8, addend: 0x0, symName: __ZNSt3__116allocator_traitsINS_9allocatorIdEEE37select_on_container_copy_constructionB7v160006IS2_vvEES2_RKS2_, symObjAddr: 0x57C8, symBinAddr: 0x10000971C, symSize: 0x10 }
  - { offsetInCU: 0x1091A, offset: 0x1091A, size: 0x8, addend: 0x0, symName: __ZNSt3__117__compressed_pairIPdNS_9allocatorIdEEEC1B7v160006IDnS3_EEOT_OT0_, symObjAddr: 0x57D8, symBinAddr: 0x10000972C, symSize: 0x3C }
  - { offsetInCU: 0x10972, offset: 0x10972, size: 0x8, addend: 0x0, symName: __ZNSt3__16vectorIdNS_9allocatorIdEEE18__construct_at_endIPdLi0EEEvT_S6_m, symObjAddr: 0x5814, symBinAddr: 0x100009768, symSize: 0x8C }
  - { offsetInCU: 0x109E5, offset: 0x109E5, size: 0x8, addend: 0x0, symName: __ZNSt3__117__compressed_pairIPdNS_9allocatorIdEEEC2B7v160006IDnS3_EEOT_OT0_, symObjAddr: 0x58A0, symBinAddr: 0x1000097F4, symSize: 0x44 }
  - { offsetInCU: 0x10A3D, offset: 0x10A3D, size: 0x8, addend: 0x0, symName: __ZNSt3__122__compressed_pair_elemINS_9allocatorIdEELi1ELb1EEC2B7v160006IS2_vEEOT_, symObjAddr: 0x58E4, symBinAddr: 0x100009838, symSize: 0x18 }
  - { offsetInCU: 0x10A7F, offset: 0x10A7F, size: 0x8, addend: 0x0, symName: __ZNSt3__129_AllocatorDestroyRangeReverseINS_9allocatorIdEEPdEC1B7v160006ERS2_RS3_S6_, symObjAddr: 0x5A3C, symBinAddr: 0x100009990, symSize: 0x44 }
  - { offsetInCU: 0x10AD6, offset: 0x10AD6, size: 0x8, addend: 0x0, symName: __ZNSt3__116allocator_traitsINS_9allocatorIdEEE9constructB7v160006IdJRdEvvEEvRS2_PT_DpOT0_, symObjAddr: 0x5A80, symBinAddr: 0x1000099D4, symSize: 0x30 }
  - { offsetInCU: 0x10B2A, offset: 0x10B2A, size: 0x8, addend: 0x0, symName: __ZNSt3__128__exception_guard_exceptionsINS_29_AllocatorDestroyRangeReverseINS_9allocatorIdEEPdEEE10__completeB7v160006Ev, symObjAddr: 0x5AB0, symBinAddr: 0x100009A04, symSize: 0x1C }
  - { offsetInCU: 0x10B50, offset: 0x10B50, size: 0x8, addend: 0x0, symName: __ZNSt3__128__exception_guard_exceptionsINS_29_AllocatorDestroyRangeReverseINS_9allocatorIdEEPdEEED1B7v160006Ev, symObjAddr: 0x5ACC, symBinAddr: 0x100009A20, symSize: 0x2C }
  - { offsetInCU: 0x10B7A, offset: 0x10B7A, size: 0x8, addend: 0x0, symName: __ZNSt3__128__exception_guard_exceptionsINS_29_AllocatorDestroyRangeReverseINS_9allocatorIdEEPdEEEC1B7v160006ES5_, symObjAddr: 0x5AF8, symBinAddr: 0x100009A4C, symSize: 0x34 }
  - { offsetInCU: 0x10BB3, offset: 0x10BB3, size: 0x8, addend: 0x0, symName: __ZNSt3__128__exception_guard_exceptionsINS_29_AllocatorDestroyRangeReverseINS_9allocatorIdEEPdEEEC2B7v160006ES5_, symObjAddr: 0x5B2C, symBinAddr: 0x100009A80, symSize: 0x30 }
  - { offsetInCU: 0x10BEC, offset: 0x10BEC, size: 0x8, addend: 0x0, symName: __ZNSt3__129_AllocatorDestroyRangeReverseINS_9allocatorIdEEPdEC2B7v160006ERS2_RS3_S6_, symObjAddr: 0x5B5C, symBinAddr: 0x100009AB0, symSize: 0x38 }
  - { offsetInCU: 0x10C43, offset: 0x10C43, size: 0x8, addend: 0x0, symName: __ZNSt3__128__exception_guard_exceptionsINS_29_AllocatorDestroyRangeReverseINS_9allocatorIdEEPdEEED2B7v160006Ev, symObjAddr: 0x5BC0, symBinAddr: 0x100009B14, symSize: 0x50 }
  - { offsetInCU: 0x10C6D, offset: 0x10C6D, size: 0x8, addend: 0x0, symName: __ZNKSt3__129_AllocatorDestroyRangeReverseINS_9allocatorIdEEPdEclB7v160006Ev, symObjAddr: 0x5C10, symBinAddr: 0x100009B64, symSize: 0x68 }
  - { offsetInCU: 0x10C98, offset: 0x10C98, size: 0x8, addend: 0x0, symName: __ZNSt3__119__to_address_helperINS_16reverse_iteratorIPdEEvE6__callB7v160006ERKS3_, symObjAddr: 0x5D0C, symBinAddr: 0x100009C60, symSize: 0x38 }
  - { offsetInCU: 0x10CBB, offset: 0x10CBB, size: 0x8, addend: 0x0, symName: __ZNKSt3__116reverse_iteratorIPdEptB7v160006Ev, symObjAddr: 0x5D44, symBinAddr: 0x100009C98, symSize: 0x2C }
  - { offsetInCU: 0x10CE1, offset: 0x10CE1, size: 0x8, addend: 0x0, symName: __ZNSt3__128__exception_guard_exceptionsINS_29_AllocatorDestroyRangeReverseINS_9allocatorINS_6vectorIdNS2_IdEEEEEEPS5_EEED2B7v160006Ev, symObjAddr: 0x5E4C, symBinAddr: 0x100009DA0, symSize: 0x50 }
  - { offsetInCU: 0x10D0B, offset: 0x10D0B, size: 0x8, addend: 0x0, symName: __ZNKSt3__129_AllocatorDestroyRangeReverseINS_9allocatorINS_6vectorIdNS1_IdEEEEEEPS4_EclB7v160006Ev, symObjAddr: 0x5E9C, symBinAddr: 0x100009DF0, symSize: 0x68 }
  - { offsetInCU: 0x10D31, offset: 0x10D31, size: 0x8, addend: 0x0, symName: __ZNSt3__116reverse_iteratorIPNS_6vectorIdNS_9allocatorIdEEEEEC1B7v160006ES5_, symObjAddr: 0x5F74, symBinAddr: 0x100009EC8, symSize: 0x34 }
  - { offsetInCU: 0x10D69, offset: 0x10D69, size: 0x8, addend: 0x0, symName: __ZNSt3__116reverse_iteratorIPNS_6vectorIdNS_9allocatorIdEEEEEppB7v160006Ev, symObjAddr: 0x6014, symBinAddr: 0x100009F68, symSize: 0x20 }
  - { offsetInCU: 0x10D8F, offset: 0x10D8F, size: 0x8, addend: 0x0, symName: __ZNKSt3__116reverse_iteratorIPNS_6vectorIdNS_9allocatorIdEEEEE4baseB7v160006Ev, symObjAddr: 0x6034, symBinAddr: 0x100009F88, symSize: 0x18 }
  - { offsetInCU: 0x10DBA, offset: 0x10DBA, size: 0x8, addend: 0x0, symName: __ZNSt3__119__to_address_helperINS_16reverse_iteratorIPNS_6vectorIdNS_9allocatorIdEEEEEEvE6__callB7v160006ERKS7_, symObjAddr: 0x604C, symBinAddr: 0x100009FA0, symSize: 0x38 }
  - { offsetInCU: 0x10DDD, offset: 0x10DDD, size: 0x8, addend: 0x0, symName: __ZNKSt3__116reverse_iteratorIPNS_6vectorIdNS_9allocatorIdEEEEEptB7v160006Ev, symObjAddr: 0x6084, symBinAddr: 0x100009FD8, symSize: 0x2C }
  - { offsetInCU: 0x10E03, offset: 0x10E03, size: 0x8, addend: 0x0, symName: __ZNSt3__116reverse_iteratorIPNS_6vectorIdNS_9allocatorIdEEEEEC2B7v160006ES5_, symObjAddr: 0x6180, symBinAddr: 0x10000A0D4, symSize: 0x28 }
  - { offsetInCU: 0x10E3B, offset: 0x10E3B, size: 0x8, addend: 0x0, symName: __ZNSt3__16vectorINS0_IdNS_9allocatorIdEEEENS1_IS3_EEEC2ERKS5_, symObjAddr: 0x61A8, symBinAddr: 0x10000A0FC, symSize: 0x110 }
  - { offsetInCU: 0x10E9A, offset: 0x10E9A, size: 0x8, addend: 0x0, symName: __ZNSt3__116allocator_traitsINS_9allocatorINS_6vectorIdNS1_IdEEEEEEE37select_on_container_copy_constructionB7v160006IS5_vvEES5_RKS5_, symObjAddr: 0x62B8, symBinAddr: 0x10000A20C, symSize: 0x10 }
  - { offsetInCU: 0x10ECF, offset: 0x10ECF, size: 0x8, addend: 0x0, symName: __ZNSt3__117__compressed_pairIPNS_6vectorIdNS_9allocatorIdEEEENS2_IS4_EEEC1B7v160006IDnS6_EEOT_OT0_, symObjAddr: 0x62C8, symBinAddr: 0x10000A21C, symSize: 0x3C }
  - { offsetInCU: 0x10F27, offset: 0x10F27, size: 0x8, addend: 0x0, symName: __ZNSt3__16vectorINS0_IdNS_9allocatorIdEEEENS1_IS3_EEE18__construct_at_endIPS3_Li0EEEvT_S8_m, symObjAddr: 0x6304, symBinAddr: 0x10000A258, symSize: 0x8C }
  - { offsetInCU: 0x10F9A, offset: 0x10F9A, size: 0x8, addend: 0x0, symName: __ZNSt3__117__compressed_pairIPNS_6vectorIdNS_9allocatorIdEEEENS2_IS4_EEEC2B7v160006IDnS6_EEOT_OT0_, symObjAddr: 0x6390, symBinAddr: 0x10000A2E4, symSize: 0x44 }
  - { offsetInCU: 0x10FF2, offset: 0x10FF2, size: 0x8, addend: 0x0, symName: __ZNSt3__122__compressed_pair_elemINS_9allocatorINS_6vectorIdNS1_IdEEEEEELi1ELb1EEC2B7v160006IS5_vEEOT_, symObjAddr: 0x63D4, symBinAddr: 0x10000A328, symSize: 0x18 }
  - { offsetInCU: 0x11034, offset: 0x11034, size: 0x8, addend: 0x0, symName: __ZNSt3__116allocator_traitsINS_9allocatorINS_6vectorIdNS1_IdEEEEEEE9constructB7v160006IS4_JRS4_EvvEEvRS5_PT_DpOT0_, symObjAddr: 0x64E0, symBinAddr: 0x10000A434, symSize: 0x30 }
  - { offsetInCU: 0x11088, offset: 0x11088, size: 0x8, addend: 0x0, symName: __ZNSt3__18__iom_t6C1B7v160006Ei, symObjAddr: 0x654C, symBinAddr: 0x10000A4A0, symSize: 0x34 }
  - { offsetInCU: 0x110C0, offset: 0x110C0, size: 0x8, addend: 0x0, symName: __ZNSt3__18__iom_t6C2B7v160006Ei, symObjAddr: 0x6580, symBinAddr: 0x10000A4D4, symSize: 0x20 }
  - { offsetInCU: 0x110F8, offset: 0x110F8, size: 0x8, addend: 0x0, symName: __ZNSt3__112basic_stringIcNS_11char_traitsIcEENS_9allocatorIcEEEC1B7v160006EOS5_, symObjAddr: 0x65A0, symBinAddr: 0x10000A4F4, symSize: 0x34 }
  - { offsetInCU: 0x11131, offset: 0x11131, size: 0x8, addend: 0x0, symName: __ZNSt3__112basic_stringIcNS_11char_traitsIcEENS_9allocatorIcEEEC2B7v160006EOS5_, symObjAddr: 0x65D4, symBinAddr: 0x10000A528, symSize: 0x88 }
  - { offsetInCU: 0x1116A, offset: 0x1116A, size: 0x8, addend: 0x0, symName: __ZNSt3__112basic_stringIcNS_11char_traitsIcEENS_9allocatorIcEEE14__default_initB7v160006Ev, symObjAddr: 0x665C, symBinAddr: 0x10000A5B0, symSize: 0x40 }
  - { offsetInCU: 0x11190, offset: 0x11190, size: 0x8, addend: 0x0, symName: __ZNKSt3__112basic_stringIcNS_11char_traitsIcEENS_9allocatorIcEEE9__is_longB7v160006Ev, symObjAddr: 0x66AC, symBinAddr: 0x10000A600, symSize: 0x38 }
  - { offsetInCU: 0x111B6, offset: 0x111B6, size: 0x8, addend: 0x0, symName: __ZNSt3__117__compressed_pairINS_12basic_stringIcNS_11char_traitsIcEENS_9allocatorIcEEE5__repES5_E5firstB7v160006Ev, symObjAddr: 0x66F8, symBinAddr: 0x10000A64C, symSize: 0x24 }
  - { offsetInCU: 0x111DC, offset: 0x111DC, size: 0x8, addend: 0x0, symName: __ZNSt3__122__compressed_pair_elemINS_12basic_stringIcNS_11char_traitsIcEENS_9allocatorIcEEE5__repELi0ELb0EE5__getB7v160006Ev, symObjAddr: 0x671C, symBinAddr: 0x10000A670, symSize: 0x14 }
  - { offsetInCU: 0x11202, offset: 0x11202, size: 0x8, addend: 0x0, symName: __ZNKSt3__117__compressed_pairINS_12basic_stringIcNS_11char_traitsIcEENS_9allocatorIcEEE5__repES5_E5firstB7v160006Ev, symObjAddr: 0x6730, symBinAddr: 0x10000A684, symSize: 0x24 }
  - { offsetInCU: 0x11228, offset: 0x11228, size: 0x8, addend: 0x0, symName: __ZNKSt3__122__compressed_pair_elemINS_12basic_stringIcNS_11char_traitsIcEENS_9allocatorIcEEE5__repELi0ELb0EE5__getB7v160006Ev, symObjAddr: 0x6754, symBinAddr: 0x10000A6A8, symSize: 0x14 }
  - { offsetInCU: 0x1124E, offset: 0x1124E, size: 0x8, addend: 0x0, symName: __ZNSt3__18__iom_t4IcEC1B7v160006Ec, symObjAddr: 0x6768, symBinAddr: 0x10000A6BC, symSize: 0x34 }
  - { offsetInCU: 0x11286, offset: 0x11286, size: 0x8, addend: 0x0, symName: __ZNSt3__18__iom_t4IcEC2B7v160006Ec, symObjAddr: 0x679C, symBinAddr: 0x10000A6F0, symSize: 0x20 }
  - { offsetInCU: 0x112BE, offset: 0x112BE, size: 0x8, addend: 0x0, symName: __ZNSt3__19basic_iosIcNS_11char_traitsIcEEE4fillB7v160006Ec, symObjAddr: 0x67BC, symBinAddr: 0x10000A710, symSize: 0x74 }
  - { offsetInCU: 0x11304, offset: 0x11304, size: 0x8, addend: 0x0, symName: __ZNSt3__111char_traitsIcE11eq_int_typeEii, symObjAddr: 0x6830, symBinAddr: 0x10000A784, symSize: 0x28 }
  - { offsetInCU: 0x11335, offset: 0x11335, size: 0x8, addend: 0x0, symName: __ZNSt3__111char_traitsIcE3eofEv, symObjAddr: 0x6858, symBinAddr: 0x10000A7AC, symSize: 0x8 }
  - { offsetInCU: 0x11349, offset: 0x11349, size: 0x8, addend: 0x0, symName: __ZNKSt3__19basic_iosIcNS_11char_traitsIcEEE5widenB7v160006Ec, symObjAddr: 0x6860, symBinAddr: 0x10000A7B4, symSize: 0x84 }
  - { offsetInCU: 0x113B7, offset: 0x113B7, size: 0x8, addend: 0x0, symName: __ZNKSt3__15ctypeIcE5widenB7v160006Ec, symObjAddr: 0x6910, symBinAddr: 0x10000A864, symSize: 0x38 }
  - { offsetInCU: 0x113EC, offset: 0x113EC, size: 0x8, addend: 0x0, symName: __ZNSt3__18ios_base5widthB7v160006El, symObjAddr: 0x6948, symBinAddr: 0x10000A89C, symSize: 0x2C }
  - { offsetInCU: 0x11432, offset: 0x11432, size: 0x8, addend: 0x0, symName: __ZNKSt3__112basic_stringIcNS_11char_traitsIcEENS_9allocatorIcEEE4dataB7v160006Ev, symObjAddr: 0x6B60, symBinAddr: 0x10000AAB4, symSize: 0x28 }
  - { offsetInCU: 0x11458, offset: 0x11458, size: 0x8, addend: 0x0, symName: __ZNKSt3__112basic_stringIcNS_11char_traitsIcEENS_9allocatorIcEEE4sizeB7v160006Ev, symObjAddr: 0x6B88, symBinAddr: 0x10000AADC, symSize: 0x54 }
  - { offsetInCU: 0x1149C, offset: 0x1149C, size: 0x8, addend: 0x0, symName: __ZNKSt3__113basic_ostreamIcNS_11char_traitsIcEEE6sentrycvbB7v160006Ev, symObjAddr: 0x6BDC, symBinAddr: 0x10000AB30, symSize: 0x1C }
  - { offsetInCU: 0x114C2, offset: 0x114C2, size: 0x8, addend: 0x0, symName: __ZNSt3__119ostreambuf_iteratorIcNS_11char_traitsIcEEEC1B7v160006ERNS_13basic_ostreamIcS2_EE, symObjAddr: 0x6E38, symBinAddr: 0x10000AD8C, symSize: 0x34 }
  - { offsetInCU: 0x114FA, offset: 0x114FA, size: 0x8, addend: 0x0, symName: __ZNKSt3__18ios_base5flagsB7v160006Ev, symObjAddr: 0x6E6C, symBinAddr: 0x10000ADC0, symSize: 0x18 }
  - { offsetInCU: 0x11522, offset: 0x11522, size: 0x8, addend: 0x0, symName: __ZNKSt3__19basic_iosIcNS_11char_traitsIcEEE4fillB7v160006Ev, symObjAddr: 0x6E84, symBinAddr: 0x10000ADD8, symSize: 0x64 }
  - { offsetInCU: 0x1154A, offset: 0x1154A, size: 0x8, addend: 0x0, symName: __ZNKSt3__119ostreambuf_iteratorIcNS_11char_traitsIcEEE6failedB7v160006Ev, symObjAddr: 0x6EE8, symBinAddr: 0x10000AE3C, symSize: 0x24 }
  - { offsetInCU: 0x11570, offset: 0x11570, size: 0x8, addend: 0x0, symName: __ZNSt3__19basic_iosIcNS_11char_traitsIcEEE8setstateB7v160006Ej, symObjAddr: 0x6F0C, symBinAddr: 0x10000AE60, symSize: 0x2C }
  - { offsetInCU: 0x115A5, offset: 0x115A5, size: 0x8, addend: 0x0, symName: __ZNKSt3__18ios_base5widthB7v160006Ev, symObjAddr: 0x6F38, symBinAddr: 0x10000AE8C, symSize: 0x18 }
  - { offsetInCU: 0x115CD, offset: 0x115CD, size: 0x8, addend: 0x0, symName: __ZNSt3__115basic_streambufIcNS_11char_traitsIcEEE5sputnB7v160006EPKcl, symObjAddr: 0x6F50, symBinAddr: 0x10000AEA4, symSize: 0x3C }
  - { offsetInCU: 0x1160F, offset: 0x1160F, size: 0x8, addend: 0x0, symName: __ZNSt3__112basic_stringIcNS_11char_traitsIcEENS_9allocatorIcEEEC1B7v160006Emc, symObjAddr: 0x6F8C, symBinAddr: 0x10000AEE0, symSize: 0x3C }
  - { offsetInCU: 0x11657, offset: 0x11657, size: 0x8, addend: 0x0, symName: __ZNSt3__112basic_stringIcNS_11char_traitsIcEENS_9allocatorIcEEE4dataB7v160006Ev, symObjAddr: 0x6FC8, symBinAddr: 0x10000AF1C, symSize: 0x28 }
  - { offsetInCU: 0x1167D, offset: 0x1167D, size: 0x8, addend: 0x0, symName: __ZNSt3__112basic_stringIcNS_11char_traitsIcEENS_9allocatorIcEEEC2B7v160006Emc, symObjAddr: 0x6FF0, symBinAddr: 0x10000AF44, symSize: 0x54 }
  - { offsetInCU: 0x116C5, offset: 0x116C5, size: 0x8, addend: 0x0, symName: __ZNSt3__117__compressed_pairINS_12basic_stringIcNS_11char_traitsIcEENS_9allocatorIcEEE5__repES5_EC1B7v160006INS_18__default_init_tagESA_EEOT_OT0_, symObjAddr: 0x7044, symBinAddr: 0x10000AF98, symSize: 0x3C }
  - { offsetInCU: 0x1171D, offset: 0x1171D, size: 0x8, addend: 0x0, symName: __ZNSt3__117__compressed_pairINS_12basic_stringIcNS_11char_traitsIcEENS_9allocatorIcEEE5__repES5_EC2B7v160006INS_18__default_init_tagESA_EEOT_OT0_, symObjAddr: 0x7080, symBinAddr: 0x10000AFD4, symSize: 0x3C }
  - { offsetInCU: 0x11775, offset: 0x11775, size: 0x8, addend: 0x0, symName: __ZNSt3__122__compressed_pair_elemINS_12basic_stringIcNS_11char_traitsIcEENS_9allocatorIcEEE5__repELi0ELb0EEC2B7v160006ENS_18__default_init_tagE, symObjAddr: 0x70BC, symBinAddr: 0x10000B010, symSize: 0x14 }
  - { offsetInCU: 0x117A9, offset: 0x117A9, size: 0x8, addend: 0x0, symName: __ZNSt3__122__compressed_pair_elemINS_9allocatorIcEELi1ELb1EEC2B7v160006ENS_18__default_init_tagE, symObjAddr: 0x70D0, symBinAddr: 0x10000B024, symSize: 0x2C }
  - { offsetInCU: 0x117DD, offset: 0x117DD, size: 0x8, addend: 0x0, symName: __ZNSt3__19allocatorIcEC2B7v160006Ev, symObjAddr: 0x70FC, symBinAddr: 0x10000B050, symSize: 0x2C }
  - { offsetInCU: 0x11807, offset: 0x11807, size: 0x8, addend: 0x0, symName: __ZNSt3__116__non_trivial_ifILb1ENS_9allocatorIcEEEC2B7v160006Ev, symObjAddr: 0x7128, symBinAddr: 0x10000B07C, symSize: 0x14 }
  - { offsetInCU: 0x11831, offset: 0x11831, size: 0x8, addend: 0x0, symName: __ZNSt3__112basic_stringIcNS_11char_traitsIcEENS_9allocatorIcEEE13__get_pointerB7v160006Ev, symObjAddr: 0x7150, symBinAddr: 0x10000B0A4, symSize: 0x54 }
  - { offsetInCU: 0x11857, offset: 0x11857, size: 0x8, addend: 0x0, symName: __ZNSt3__112basic_stringIcNS_11char_traitsIcEENS_9allocatorIcEEE18__get_long_pointerB7v160006Ev, symObjAddr: 0x71A4, symBinAddr: 0x10000B0F8, symSize: 0x28 }
  - { offsetInCU: 0x1187D, offset: 0x1187D, size: 0x8, addend: 0x0, symName: __ZNSt3__112basic_stringIcNS_11char_traitsIcEENS_9allocatorIcEEE19__get_short_pointerB7v160006Ev, symObjAddr: 0x71CC, symBinAddr: 0x10000B120, symSize: 0x28 }
  - { offsetInCU: 0x118A3, offset: 0x118A3, size: 0x8, addend: 0x0, symName: __ZNSt3__114pointer_traitsIPcE10pointer_toB7v160006ERc, symObjAddr: 0x71F4, symBinAddr: 0x10000B148, symSize: 0x14 }
  - { offsetInCU: 0x118C6, offset: 0x118C6, size: 0x8, addend: 0x0, symName: __ZNSt3__119ostreambuf_iteratorIcNS_11char_traitsIcEEEC2B7v160006ERNS_13basic_ostreamIcS2_EE, symObjAddr: 0x7208, symBinAddr: 0x10000B15C, symSize: 0x54 }
  - { offsetInCU: 0x118FE, offset: 0x118FE, size: 0x8, addend: 0x0, symName: __ZNKSt3__19basic_iosIcNS_11char_traitsIcEEE5rdbufB7v160006Ev, symObjAddr: 0x725C, symBinAddr: 0x10000B1B0, symSize: 0x24 }
  - { offsetInCU: 0x11926, offset: 0x11926, size: 0x8, addend: 0x0, symName: __ZNKSt3__18ios_base5rdbufB7v160006Ev, symObjAddr: 0x7280, symBinAddr: 0x10000B1D4, symSize: 0x18 }
  - { offsetInCU: 0x1194C, offset: 0x1194C, size: 0x8, addend: 0x0, symName: __ZNSt3__18ios_base8setstateB7v160006Ej, symObjAddr: 0x7298, symBinAddr: 0x10000B1EC, symSize: 0x34 }
  - { offsetInCU: 0x11983, offset: 0x11983, size: 0x8, addend: 0x0, symName: __ZNKSt3__112basic_stringIcNS_11char_traitsIcEENS_9allocatorIcEEE13__get_pointerB7v160006Ev, symObjAddr: 0x72E0, symBinAddr: 0x10000B234, symSize: 0x54 }
  - { offsetInCU: 0x119A9, offset: 0x119A9, size: 0x8, addend: 0x0, symName: __ZNKSt3__112basic_stringIcNS_11char_traitsIcEENS_9allocatorIcEEE18__get_long_pointerB7v160006Ev, symObjAddr: 0x7334, symBinAddr: 0x10000B288, symSize: 0x28 }
  - { offsetInCU: 0x119CF, offset: 0x119CF, size: 0x8, addend: 0x0, symName: __ZNKSt3__112basic_stringIcNS_11char_traitsIcEENS_9allocatorIcEEE19__get_short_pointerB7v160006Ev, symObjAddr: 0x735C, symBinAddr: 0x10000B2B0, symSize: 0x28 }
  - { offsetInCU: 0x119F5, offset: 0x119F5, size: 0x8, addend: 0x0, symName: __ZNSt3__114pointer_traitsIPKcE10pointer_toB7v160006ERS1_, symObjAddr: 0x7384, symBinAddr: 0x10000B2D8, symSize: 0x14 }
  - { offsetInCU: 0x11A18, offset: 0x11A18, size: 0x8, addend: 0x0, symName: __ZNKSt3__112basic_stringIcNS_11char_traitsIcEENS_9allocatorIcEEE15__get_long_sizeB7v160006Ev, symObjAddr: 0x7398, symBinAddr: 0x10000B2EC, symSize: 0x28 }
  - { offsetInCU: 0x11A3E, offset: 0x11A3E, size: 0x8, addend: 0x0, symName: __ZNKSt3__112basic_stringIcNS_11char_traitsIcEENS_9allocatorIcEEE16__get_short_sizeB7v160006Ev, symObjAddr: 0x73C0, symBinAddr: 0x10000B314, symSize: 0x34 }
  - { offsetInCU: 0x11A64, offset: 0x11A64, size: 0x8, addend: 0x0, symName: __ZNSt3__111char_traitsIcE6lengthEPKc, symObjAddr: 0x73F4, symBinAddr: 0x10000B348, symSize: 0x34 }
...
