---
triple:          'arm64-apple-darwin'
binary-path:     "/Users/maga/Desktop/University/3-ий курс/МОСППР/3"
relocations:
  - { offsetInCU: 0x68F5, offset: 0x68F5, size: 0x8, addend: 0x0, symName: __ZNSt3__17advanceB8ue170006IPNS_6vectorIdNS_9allocatorIdEEEEllvEEvRT_T0_, symObjAddr: 0x7394, symBinAddr: 0x100008EBC, symSize: 0x38 }
  - { offsetInCU: 0x6960, offset: 0x6960, size: 0x8, addend: 0x0, symName: __ZNSt3__17advanceB8ue170006IPKNS_6vectorIdNS_9allocatorIdEEEEllvEEvRT_T0_, symObjAddr: 0x8018, symBinAddr: 0x100009B40, symSize: 0x38 }
  - { offsetInCU: 0x69EB, offset: 0x69EB, size: 0x8, addend: 0x0, symName: __ZNSt3__17advanceB8ue170006IPdllvEEvRT_T0_, symObjAddr: 0x85C0, symBinAddr: 0x10000A0E8, symSize: 0x38 }
  - { offsetInCU: 0x6AB1, offset: 0x6AB1, size: 0x8, addend: 0x0, symName: __ZNSt3__124__put_character_sequenceB8ue170006IcNS_11char_traitsIcEEEERNS_13basic_ostreamIT_T0_EES7_PKS4_m, symObjAddr: 0x8C54, symBinAddr: 0x10000A77C, symSize: 0x1EC }
  - { offsetInCU: 0x882E, offset: 0x882E, size: 0x8, addend: 0x0, symName: __ZNSt3__1neB8ue170006IPNS_6vectorIdNS_9allocatorIdEEEEEEbRKNS_11__wrap_iterIT_EESA_, symObjAddr: 0x14F8, symBinAddr: 0x100003020, symSize: 0x34 }
  - { offsetInCU: 0x8871, offset: 0x8871, size: 0x8, addend: 0x0, symName: __ZNSt3__1neB8ue170006IPdEEbRKNS_11__wrap_iterIT_EES6_, symObjAddr: 0x15A4, symBinAddr: 0x1000030CC, symSize: 0x34 }
  - { offsetInCU: 0x88B4, offset: 0x88B4, size: 0x8, addend: 0x0, symName: __ZNSt3__1lsB8ue170006INS_11char_traitsIcEEEERNS_13basic_ostreamIcT_EES6_PKc, symObjAddr: 0x24C0, symBinAddr: 0x100003FE8, symSize: 0x48 }
  - { offsetInCU: 0x88FA, offset: 0x88FA, size: 0x8, addend: 0x0, symName: __ZNSt3__1lsB8ue170006IcNS_11char_traitsIcEEEERNS_13basic_ostreamIT_T0_EES7_RKNS_8__iom_t6E, symObjAddr: 0x2508, symBinAddr: 0x100004030, symSize: 0x40 }
  - { offsetInCU: 0x8949, offset: 0x8949, size: 0x8, addend: 0x0, symName: __ZNSt3__1lsB8ue170006IcNS_11char_traitsIcEENS_9allocatorIcEEEERNS_13basic_ostreamIT_T0_EES9_RKNS_12basic_stringIS6_S7_T1_EE, symObjAddr: 0x2548, symBinAddr: 0x100004070, symSize: 0x4C }
  - { offsetInCU: 0x89A1, offset: 0x89A1, size: 0x8, addend: 0x0, symName: __ZNSt3__1lsB8ue170006INS_11char_traitsIcEEEERNS_13basic_ostreamIcT_EES6_RKNS_8__iom_t4IcEE, symObjAddr: 0x2594, symBinAddr: 0x1000040BC, symSize: 0x40 }
  - { offsetInCU: 0x89E4, offset: 0x89E4, size: 0x8, addend: 0x0, symName: __ZNSt3__17setfillB8ue170006IcEENS_8__iom_t4IT_EES2_, symObjAddr: 0x25D4, symBinAddr: 0x1000040FC, symSize: 0x2C }
  - { offsetInCU: 0x8A19, offset: 0x8A19, size: 0x8, addend: 0x0, symName: __ZNSt3__14setwB8ue170006Ei, symObjAddr: 0x2600, symBinAddr: 0x100004128, symSize: 0x2C }
  - { offsetInCU: 0x8A47, offset: 0x8A47, size: 0x8, addend: 0x0, symName: __ZNSt3__1plB8ue170006IcNS_11char_traitsIcEENS_9allocatorIcEEEENS_12basic_stringIT_T0_T1_EEPKS6_OS9_, symObjAddr: 0x262C, symBinAddr: 0x100004154, symSize: 0x44 }
  - { offsetInCU: 0x8A9F, offset: 0x8A9F, size: 0x8, addend: 0x0, symName: __ZNSt3__14endlB8ue170006IcNS_11char_traitsIcEEEERNS_13basic_ostreamIT_T0_EES7_, symObjAddr: 0x269C, symBinAddr: 0x1000041C4, symSize: 0x58 }
  - { offsetInCU: 0x8ADF, offset: 0x8ADF, size: 0x8, addend: 0x0, symName: __ZNSt3__122__make_exception_guardB8ue170006INS_6vectorINS1_IdNS_9allocatorIdEEEENS2_IS4_EEE16__destroy_vectorEEENS_28__exception_guard_exceptionsIT_EES9_, symObjAddr: 0x286C, symBinAddr: 0x100004394, symSize: 0x40 }
  - { offsetInCU: 0x8B14, offset: 0x8B14, size: 0x8, addend: 0x0, symName: __ZNSt3__119__allocate_at_leastB8ue170006INS_9allocatorINS_6vectorIdNS1_IdEEEEEEEENS_19__allocation_resultINS_16allocator_traitsIT_E7pointerEEERS8_m, symObjAddr: 0x2C60, symBinAddr: 0x100004788, symSize: 0x40 }
  - { offsetInCU: 0x8B57, offset: 0x8B57, size: 0x8, addend: 0x0, symName: __ZNSt3__13minB8ue170006ImEERKT_S3_S3_, symObjAddr: 0x2DB8, symBinAddr: 0x1000048E0, symSize: 0x2C }
  - { offsetInCU: 0x8D84, offset: 0x8D84, size: 0x8, addend: 0x0, symName: __ZNSt3__13minB8ue170006ImNS_6__lessIvvEEEERKT_S5_S5_T0_, symObjAddr: 0x2E54, symBinAddr: 0x10000497C, symSize: 0x54 }
  - { offsetInCU: 0x900F, offset: 0x900F, size: 0x8, addend: 0x0, symName: __ZNSt3__120__throw_length_errorB8ue170006EPKc, symObjAddr: 0x2F38, symBinAddr: 0x100004A60, symSize: 0x64 }
  - { offsetInCU: 0x9039, offset: 0x9039, size: 0x8, addend: 0x0, symName: __ZNSt3__117__libcpp_allocateB8ue170006Emm, symObjAddr: 0x30AC, symBinAddr: 0x100004BD4, symSize: 0x60 }
  - { offsetInCU: 0x9093, offset: 0x9093, size: 0x8, addend: 0x0, symName: __ZNSt3__124__is_overaligned_for_newB8ue170006Em, symObjAddr: 0x310C, symBinAddr: 0x100004C34, symSize: 0x20 }
  - { offsetInCU: 0x90C1, offset: 0x90C1, size: 0x8, addend: 0x0, symName: __ZNSt3__121__libcpp_operator_newB8ue170006IJmSt11align_val_tEEEPvDpT_, symObjAddr: 0x312C, symBinAddr: 0x100004C54, symSize: 0x2C }
  - { offsetInCU: 0x910E, offset: 0x910E, size: 0x8, addend: 0x0, symName: __ZNSt3__121__libcpp_operator_newB8ue170006IJmEEEPvDpT_, symObjAddr: 0x3158, symBinAddr: 0x100004C80, symSize: 0x24 }
  - { offsetInCU: 0x9147, offset: 0x9147, size: 0x8, addend: 0x0, symName: __ZNSt3__112__to_addressB8ue170006INS_6vectorIdNS_9allocatorIdEEEEEEPT_S6_, symObjAddr: 0x3274, symBinAddr: 0x100004D9C, symSize: 0x14 }
  - { offsetInCU: 0x91A1, offset: 0x91A1, size: 0x8, addend: 0x0, symName: __ZNSt3__112construct_atB8ue170006INS_6vectorIdNS_9allocatorIdEEEEJEPS4_EEPT_S7_DpOT0_, symObjAddr: 0x33C4, symBinAddr: 0x100004EEC, symSize: 0x34 }
  - { offsetInCU: 0x91FD, offset: 0x91FD, size: 0x8, addend: 0x0, symName: __ZNSt3__110destroy_atB8ue170006INS_6vectorIdNS_9allocatorIdEEEELi0EEEvPT_, symObjAddr: 0x3858, symBinAddr: 0x100005380, symSize: 0x24 }
  - { offsetInCU: 0x9234, offset: 0x9234, size: 0x8, addend: 0x0, symName: __ZNSt3__112__destroy_atB8ue170006INS_6vectorIdNS_9allocatorIdEEEELi0EEEvPT_, symObjAddr: 0x387C, symBinAddr: 0x1000053A4, symSize: 0x24 }
  - { offsetInCU: 0x926B, offset: 0x926B, size: 0x8, addend: 0x0, symName: __ZNSt3__119__libcpp_deallocateB8ue170006EPvmm, symObjAddr: 0x38E4, symBinAddr: 0x10000540C, symSize: 0x60 }
  - { offsetInCU: 0x92D0, offset: 0x92D0, size: 0x8, addend: 0x0, symName: __ZNSt3__127__do_deallocate_handle_sizeB8ue170006IJSt11align_val_tEEEvPvmDpT_, symObjAddr: 0x3944, symBinAddr: 0x10000546C, symSize: 0x30 }
  - { offsetInCU: 0x9323, offset: 0x9323, size: 0x8, addend: 0x0, symName: __ZNSt3__127__do_deallocate_handle_sizeB8ue170006IJEEEvPvmDpT_, symObjAddr: 0x3974, symBinAddr: 0x10000549C, symSize: 0x28 }
  - { offsetInCU: 0x9361, offset: 0x9361, size: 0x8, addend: 0x0, symName: __ZNSt3__124__libcpp_operator_deleteB8ue170006IJPvSt11align_val_tEEEvDpT_, symObjAddr: 0x399C, symBinAddr: 0x1000054C4, symSize: 0x2C }
  - { offsetInCU: 0x93AA, offset: 0x93AA, size: 0x8, addend: 0x0, symName: __ZNSt3__124__libcpp_operator_deleteB8ue170006IJPvEEEvDpT_, symObjAddr: 0x39C8, symBinAddr: 0x1000054F0, symSize: 0x24 }
  - { offsetInCU: 0x93DF, offset: 0x93DF, size: 0x8, addend: 0x0, symName: __ZNSt3__112__to_addressB8ue170006IdEEPT_S2_, symObjAddr: 0x3FDC, symBinAddr: 0x100005B04, symSize: 0x14 }
  - { offsetInCU: 0x9439, offset: 0x9439, size: 0x8, addend: 0x0, symName: __ZNSt3__112construct_atB8ue170006IdJEPdEEPT_S3_DpOT0_, symObjAddr: 0x4060, symBinAddr: 0x100005B88, symSize: 0x24 }
  - { offsetInCU: 0x9495, offset: 0x9495, size: 0x8, addend: 0x0, symName: __ZNSt3__13maxB8ue170006ImEERKT_S3_S3_, symObjAddr: 0x4198, symBinAddr: 0x100005CC0, symSize: 0x2C }
  - { offsetInCU: 0x94D8, offset: 0x94D8, size: 0x8, addend: 0x0, symName: __ZNSt3__13maxB8ue170006ImNS_6__lessIvvEEEERKT_S5_S5_T0_, symObjAddr: 0x42AC, symBinAddr: 0x100005DD4, symSize: 0x54 }
  - { offsetInCU: 0x9532, offset: 0x9532, size: 0x8, addend: 0x0, symName: __ZNSt3__119__allocate_at_leastB8ue170006INS_9allocatorIdEEEENS_19__allocation_resultINS_16allocator_traitsIT_E7pointerEEERS5_m, symObjAddr: 0x4410, symBinAddr: 0x100005F38, symSize: 0x40 }
  - { offsetInCU: 0x9575, offset: 0x9575, size: 0x8, addend: 0x0, symName: __ZNSt3__142__uninitialized_allocator_move_if_noexceptB8ue170006INS_9allocatorIdEENS_16reverse_iteratorIPdEES5_dvEET1_RT_T0_S9_S6_, symObjAddr: 0x4748, symBinAddr: 0x100006270, symSize: 0x78 }
  - { offsetInCU: 0x95F2, offset: 0x95F2, size: 0x8, addend: 0x0, symName: __ZNSt3__14swapB8ue170006IPdEENS_9enable_ifIXaasr21is_move_constructibleIT_EE5valuesr18is_move_assignableIS3_EE5valueEvE4typeERS3_S6_, symObjAddr: 0x480C, symBinAddr: 0x100006334, symSize: 0x3C }
  - { offsetInCU: 0x9643, offset: 0x9643, size: 0x8, addend: 0x0, symName: __ZNSt3__14moveB8ue170006INS_16reverse_iteratorIPdEES3_EET0_T_S5_S4_, symObjAddr: 0x493C, symBinAddr: 0x100006464, symSize: 0x78 }
  - { offsetInCU: 0x969D, offset: 0x969D, size: 0x8, addend: 0x0, symName: __ZNSt3__16__moveB8ue170006INS_17_ClassicAlgPolicyENS_16reverse_iteratorIPdEES4_S4_EENS_4pairIT0_T2_EES6_T1_S7_, symObjAddr: 0x49B4, symBinAddr: 0x1000064DC, symSize: 0x64 }
  - { offsetInCU: 0x9709, offset: 0x9709, size: 0x8, addend: 0x0, symName: __ZNSt3__123__dispatch_copy_or_moveB8ue170006INS_17_ClassicAlgPolicyENS_11__move_loopIS1_EENS_14__move_trivialENS_16reverse_iteratorIPdEES7_S7_EENS_4pairIT2_T4_EES9_T3_SA_, symObjAddr: 0x4A18, symBinAddr: 0x100006540, symSize: 0x64 }
  - { offsetInCU: 0x9787, offset: 0x9787, size: 0x8, addend: 0x0, symName: __ZNSt3__121__unwrap_and_dispatchB8ue170006INS_10__overloadINS_11__move_loopINS_17_ClassicAlgPolicyEEENS_14__move_trivialEEENS_16reverse_iteratorIPdEES9_S9_Li0EEENS_4pairIT0_T2_EESB_T1_SC_, symObjAddr: 0x4A7C, symBinAddr: 0x1000065A4, symSize: 0x12C }
  - { offsetInCU: 0x9817, offset: 0x9817, size: 0x8, addend: 0x0, symName: __ZNSt3__114__unwrap_rangeB8ue170006INS_16reverse_iteratorIPdEES3_EEDaT_T0_, symObjAddr: 0x4BA8, symBinAddr: 0x1000066D0, symSize: 0x4C }
  - { offsetInCU: 0x9992, offset: 0x9992, size: 0x8, addend: 0x0, symName: __ZNSt3__113__unwrap_iterB8ue170006INS_16reverse_iteratorIPdEENS_18__unwrap_iter_implIS3_Lb0EEELi0EEEDTclsrT0_8__unwrapclsr3stdE7declvalIT_EEEES7_, symObjAddr: 0x4C94, symBinAddr: 0x1000067BC, symSize: 0x44 }
  - { offsetInCU: 0x99D6, offset: 0x99D6, size: 0x8, addend: 0x0, symName: __ZNSt3__19make_pairB8ue170006INS_16reverse_iteratorIPdEES3_EENS_4pairINS_18__unwrap_ref_decayIT_E4typeENS5_IT0_E4typeEEEOS6_OS9_, symObjAddr: 0x4CD8, symBinAddr: 0x100006800, symSize: 0x38 }
  - { offsetInCU: 0x9A25, offset: 0x9A25, size: 0x8, addend: 0x0, symName: __ZNSt3__114__rewrap_rangeB8ue170006INS_16reverse_iteratorIPdEES3_S3_EET0_S4_T1_, symObjAddr: 0x4D10, symBinAddr: 0x100006838, symSize: 0x5C }
  - { offsetInCU: 0x9A7A, offset: 0x9A7A, size: 0x8, addend: 0x0, symName: __ZNSt3__113__rewrap_iterB8ue170006INS_16reverse_iteratorIPdEES3_NS_18__unwrap_iter_implIS3_Lb0EEEEET_S6_T0_, symObjAddr: 0x4D6C, symBinAddr: 0x100006894, symSize: 0x74 }
  - { offsetInCU: 0x9B1F, offset: 0x9B1F, size: 0x8, addend: 0x0, symName: __ZNSt3__1neB8ue170006IPdS1_EEbRKNS_16reverse_iteratorIT_EERKNS2_IT0_EE, symObjAddr: 0x4ED4, symBinAddr: 0x1000069FC, symSize: 0x48 }
  - { offsetInCU: 0x9C1D, offset: 0x9C1D, size: 0x8, addend: 0x0, symName: __ZNSt3__110destroy_atB8ue170006IdLi0EEEvPT_, symObjAddr: 0x5260, symBinAddr: 0x100006D88, symSize: 0x24 }
  - { offsetInCU: 0x9C54, offset: 0x9C54, size: 0x8, addend: 0x0, symName: __ZNSt3__112__destroy_atB8ue170006IdLi0EEEvPT_, symObjAddr: 0x5284, symBinAddr: 0x100006DAC, symSize: 0x10 }
  - { offsetInCU: 0x9C8B, offset: 0x9C8B, size: 0x8, addend: 0x0, symName: __ZNSt3__122__make_exception_guardB8ue170006INS_6vectorIdNS_9allocatorIdEEE16__destroy_vectorEEENS_28__exception_guard_exceptionsIT_EES7_, symObjAddr: 0x55C0, symBinAddr: 0x1000070E8, symSize: 0x40 }
  - { offsetInCU: 0x9CC0, offset: 0x9CC0, size: 0x8, addend: 0x0, symName: __ZNSt3__130__uninitialized_allocator_copyB8ue170006INS_9allocatorIdEEPKdS4_PdEET2_RT_T0_T1_S6_, symObjAddr: 0x587C, symBinAddr: 0x1000073A4, symSize: 0x80 }
  - { offsetInCU: 0x9D5D, offset: 0x9D5D, size: 0x8, addend: 0x0, symName: __ZNSt3__114__unwrap_rangeB8ue170006IPKdS2_EEDaT_T0_, symObjAddr: 0x58FC, symBinAddr: 0x100007424, symSize: 0x3C }
  - { offsetInCU: 0x9DA9, offset: 0x9DA9, size: 0x8, addend: 0x0, symName: __ZNSt3__135__uninitialized_allocator_copy_implB8ue170006INS_9allocatorIdEEKdddLPv0EEEPT2_RT_PT0_SA_S6_, symObjAddr: 0x5938, symBinAddr: 0x100007460, symSize: 0x38 }
  - { offsetInCU: 0x9E2A, offset: 0x9E2A, size: 0x8, addend: 0x0, symName: __ZNSt3__113__unwrap_iterB8ue170006IPdNS_18__unwrap_iter_implIS1_Lb1EEELi0EEEDTclsrT0_8__unwrapclsr3stdE7declvalIT_EEEES5_, symObjAddr: 0x5970, symBinAddr: 0x100007498, symSize: 0x24 }
  - { offsetInCU: 0x9E6E, offset: 0x9E6E, size: 0x8, addend: 0x0, symName: __ZNSt3__113__rewrap_iterB8ue170006IPdS1_NS_18__unwrap_iter_implIS1_Lb1EEEEET_S4_T0_, symObjAddr: 0x5994, symBinAddr: 0x1000074BC, symSize: 0x3C }
  - { offsetInCU: 0x9FDF, offset: 0x9FDF, size: 0x8, addend: 0x0, symName: __ZNSt3__113__unwrap_iterB8ue170006IPKdNS_18__unwrap_iter_implIS2_Lb1EEELi0EEEDTclsrT0_8__unwrapclsr3stdE7declvalIT_EEEES6_, symObjAddr: 0x5A28, symBinAddr: 0x100007550, symSize: 0x24 }
  - { offsetInCU: 0xA076, offset: 0xA076, size: 0x8, addend: 0x0, symName: __ZNSt3__112__to_addressB8ue170006IKdEEPT_S3_, symObjAddr: 0x5AAC, symBinAddr: 0x1000075D4, symSize: 0x14 }
  - { offsetInCU: 0xA0AB, offset: 0xA0AB, size: 0x8, addend: 0x0, symName: __ZNSt3__14copyB8ue170006IPKdPdEET0_T_S5_S4_, symObjAddr: 0x5AF4, symBinAddr: 0x10000761C, symSize: 0x40 }
  - { offsetInCU: 0xA105, offset: 0xA105, size: 0x8, addend: 0x0, symName: __ZNSt3__16__copyB8ue170006INS_17_ClassicAlgPolicyEPKdS3_PdEENS_4pairIT0_T2_EES6_T1_S7_, symObjAddr: 0x5B34, symBinAddr: 0x10000765C, symSize: 0x44 }
  - { offsetInCU: 0xA171, offset: 0xA171, size: 0x8, addend: 0x0, symName: __ZNSt3__123__dispatch_copy_or_moveB8ue170006INS_17_ClassicAlgPolicyENS_11__copy_loopIS1_EENS_14__copy_trivialEPKdS6_PdEENS_4pairIT2_T4_EES9_T3_SA_, symObjAddr: 0x5B78, symBinAddr: 0x1000076A0, symSize: 0x44 }
  - { offsetInCU: 0xA1EF, offset: 0xA1EF, size: 0x8, addend: 0x0, symName: __ZNSt3__121__unwrap_and_dispatchB8ue170006INS_10__overloadINS_11__copy_loopINS_17_ClassicAlgPolicyEEENS_14__copy_trivialEEEPKdS8_PdLi0EEENS_4pairIT0_T2_EESB_T1_SC_, symObjAddr: 0x5BBC, symBinAddr: 0x1000076E4, symSize: 0xB4 }
  - { offsetInCU: 0xA402, offset: 0xA402, size: 0x8, addend: 0x0, symName: __ZNSt3__19make_pairB8ue170006IPKdPdEENS_4pairINS_18__unwrap_ref_decayIT_E4typeENS5_IT0_E4typeEEEOS6_OS9_, symObjAddr: 0x5CB8, symBinAddr: 0x1000077E0, symSize: 0x38 }
  - { offsetInCU: 0xA451, offset: 0xA451, size: 0x8, addend: 0x0, symName: __ZNSt3__114__rewrap_rangeB8ue170006IPKdS2_S2_EET0_S3_T1_, symObjAddr: 0x5CF0, symBinAddr: 0x100007818, symSize: 0x2C }
  - { offsetInCU: 0xA4A6, offset: 0xA4A6, size: 0x8, addend: 0x0, symName: __ZNSt3__119__copy_trivial_implB8ue170006IKddEENS_4pairIPT_PT0_EES4_S4_S6_, symObjAddr: 0x5D1C, symBinAddr: 0x100007844, symSize: 0x80 }
  - { offsetInCU: 0xA50E, offset: 0xA50E, size: 0x8, addend: 0x0, symName: __ZNSt3__119__constexpr_memmoveB8ue170006IdKdLi0EEEPT_S3_PT0_NS_15__element_countE, symObjAddr: 0x5D9C, symBinAddr: 0x1000078C4, symSize: 0x64 }
  - { offsetInCU: 0xA57C, offset: 0xA57C, size: 0x8, addend: 0x0, symName: __ZNSt3__19make_pairB8ue170006IRPKdPdEENS_4pairINS_18__unwrap_ref_decayIT_E4typeENS6_IT0_E4typeEEEOS7_OSA_, symObjAddr: 0x5E00, symBinAddr: 0x100007928, symSize: 0x38 }
  - { offsetInCU: 0xA5CB, offset: 0xA5CB, size: 0x8, addend: 0x0, symName: __ZNSt3__113__rewrap_iterB8ue170006IPKdS2_NS_18__unwrap_iter_implIS2_Lb1EEEEET_S5_T0_, symObjAddr: 0x5F44, symBinAddr: 0x100007A6C, symSize: 0x3C }
  - { offsetInCU: 0xA673, offset: 0xA673, size: 0x8, addend: 0x0, symName: __ZNSt3__130__uninitialized_allocator_copyB8ue170006INS_9allocatorINS_6vectorIdNS1_IdEEEEEEPKS4_S7_PS4_EET2_RT_T0_T1_S9_, symObjAddr: 0x6390, symBinAddr: 0x100007EB8, symSize: 0x80 }
  - { offsetInCU: 0xA710, offset: 0xA710, size: 0x8, addend: 0x0, symName: __ZNSt3__114__unwrap_rangeB8ue170006IPKNS_6vectorIdNS_9allocatorIdEEEES6_EEDaT_T0_, symObjAddr: 0x6410, symBinAddr: 0x100007F38, symSize: 0x3C }
  - { offsetInCU: 0xA75C, offset: 0xA75C, size: 0x8, addend: 0x0, symName: __ZNSt3__135__uninitialized_allocator_copy_implB8ue170006INS_9allocatorINS_6vectorIdNS1_IdEEEEEEPKS4_S7_PS4_EET2_RT_T0_T1_S9_, symObjAddr: 0x644C, symBinAddr: 0x100007F74, symSize: 0xF4 }
  - { offsetInCU: 0xA7FA, offset: 0xA7FA, size: 0x8, addend: 0x0, symName: __ZNSt3__113__unwrap_iterB8ue170006IPNS_6vectorIdNS_9allocatorIdEEEENS_18__unwrap_iter_implIS5_Lb1EEELi0EEEDTclsrT0_8__unwrapclsr3stdE7declvalIT_EEEES9_, symObjAddr: 0x6540, symBinAddr: 0x100008068, symSize: 0x24 }
  - { offsetInCU: 0xA83E, offset: 0xA83E, size: 0x8, addend: 0x0, symName: __ZNSt3__113__rewrap_iterB8ue170006IPNS_6vectorIdNS_9allocatorIdEEEES5_NS_18__unwrap_iter_implIS5_Lb1EEEEET_S8_T0_, symObjAddr: 0x6564, symBinAddr: 0x10000808C, symSize: 0x3C }
  - { offsetInCU: 0xA9AF, offset: 0xA9AF, size: 0x8, addend: 0x0, symName: __ZNSt3__113__unwrap_iterB8ue170006IPKNS_6vectorIdNS_9allocatorIdEEEENS_18__unwrap_iter_implIS6_Lb1EEELi0EEEDTclsrT0_8__unwrapclsr3stdE7declvalIT_EEEESA_, symObjAddr: 0x65F8, symBinAddr: 0x100008120, symSize: 0x24 }
  - { offsetInCU: 0xAA46, offset: 0xAA46, size: 0x8, addend: 0x0, symName: __ZNSt3__112__to_addressB8ue170006IKNS_6vectorIdNS_9allocatorIdEEEEEEPT_S7_, symObjAddr: 0x667C, symBinAddr: 0x1000081A4, symSize: 0x14 }
  - { offsetInCU: 0xAA7B, offset: 0xAA7B, size: 0x8, addend: 0x0, symName: __ZNSt3__122__make_exception_guardB8ue170006INS_29_AllocatorDestroyRangeReverseINS_9allocatorINS_6vectorIdNS2_IdEEEEEEPS5_EEEENS_28__exception_guard_exceptionsIT_EESA_, symObjAddr: 0x66C4, symBinAddr: 0x1000081EC, symSize: 0x4C }
  - { offsetInCU: 0xAAB1, offset: 0xAAB1, size: 0x8, addend: 0x0, symName: __ZNSt3__112construct_atB8ue170006INS_6vectorIdNS_9allocatorIdEEEEJRKS4_EPS4_EEPT_S9_DpOT0_, symObjAddr: 0x6868, symBinAddr: 0x100008390, symSize: 0x3C }
  - { offsetInCU: 0xAB21, offset: 0xAB21, size: 0x8, addend: 0x0, symName: __ZNSt3__130__uninitialized_allocator_copyB8ue170006INS_9allocatorIdEEPdS3_S3_EET2_RT_T0_T1_S4_, symObjAddr: 0x6B58, symBinAddr: 0x100008680, symSize: 0x80 }
  - { offsetInCU: 0xABBE, offset: 0xABBE, size: 0x8, addend: 0x0, symName: __ZNSt3__114__unwrap_rangeB8ue170006IPdS1_EEDaT_T0_, symObjAddr: 0x6BD8, symBinAddr: 0x100008700, symSize: 0x3C }
  - { offsetInCU: 0xAC0A, offset: 0xAC0A, size: 0x8, addend: 0x0, symName: __ZNSt3__135__uninitialized_allocator_copy_implB8ue170006INS_9allocatorIdEEdddLPv0EEEPT2_RT_PT0_S9_S5_, symObjAddr: 0x6C14, symBinAddr: 0x10000873C, symSize: 0x38 }
  - { offsetInCU: 0xADD6, offset: 0xADD6, size: 0x8, addend: 0x0, symName: __ZNSt3__14copyB8ue170006IPdS1_EET0_T_S3_S2_, symObjAddr: 0x6D14, symBinAddr: 0x10000883C, symSize: 0x40 }
  - { offsetInCU: 0xAE30, offset: 0xAE30, size: 0x8, addend: 0x0, symName: __ZNSt3__16__copyB8ue170006INS_17_ClassicAlgPolicyEPdS2_S2_EENS_4pairIT0_T2_EES4_T1_S5_, symObjAddr: 0x6D54, symBinAddr: 0x10000887C, symSize: 0x44 }
  - { offsetInCU: 0xAE9C, offset: 0xAE9C, size: 0x8, addend: 0x0, symName: __ZNSt3__123__dispatch_copy_or_moveB8ue170006INS_17_ClassicAlgPolicyENS_11__copy_loopIS1_EENS_14__copy_trivialEPdS5_S5_EENS_4pairIT2_T4_EES7_T3_S8_, symObjAddr: 0x6D98, symBinAddr: 0x1000088C0, symSize: 0x44 }
  - { offsetInCU: 0xAF1A, offset: 0xAF1A, size: 0x8, addend: 0x0, symName: __ZNSt3__121__unwrap_and_dispatchB8ue170006INS_10__overloadINS_11__copy_loopINS_17_ClassicAlgPolicyEEENS_14__copy_trivialEEEPdS7_S7_Li0EEENS_4pairIT0_T2_EES9_T1_SA_, symObjAddr: 0x6DDC, symBinAddr: 0x100008904, symSize: 0xB4 }
  - { offsetInCU: 0xAFA8, offset: 0xAFA8, size: 0x8, addend: 0x0, symName: __ZNSt3__19make_pairB8ue170006IPdS1_EENS_4pairINS_18__unwrap_ref_decayIT_E4typeENS3_IT0_E4typeEEEOS4_OS7_, symObjAddr: 0x6ED8, symBinAddr: 0x100008A00, symSize: 0x38 }
  - { offsetInCU: 0xAFF7, offset: 0xAFF7, size: 0x8, addend: 0x0, symName: __ZNSt3__114__rewrap_rangeB8ue170006IPdS1_S1_EET0_S2_T1_, symObjAddr: 0x6F10, symBinAddr: 0x100008A38, symSize: 0x2C }
  - { offsetInCU: 0xB04C, offset: 0xB04C, size: 0x8, addend: 0x0, symName: __ZNSt3__119__copy_trivial_implB8ue170006IddEENS_4pairIPT_PT0_EES3_S3_S5_, symObjAddr: 0x6F3C, symBinAddr: 0x100008A64, symSize: 0x80 }
  - { offsetInCU: 0xB0B4, offset: 0xB0B4, size: 0x8, addend: 0x0, symName: __ZNSt3__119__constexpr_memmoveB8ue170006IddLi0EEEPT_S2_PT0_NS_15__element_countE, symObjAddr: 0x6FBC, symBinAddr: 0x100008AE4, symSize: 0x64 }
  - { offsetInCU: 0xB122, offset: 0xB122, size: 0x8, addend: 0x0, symName: __ZNSt3__19make_pairB8ue170006IRPdS1_EENS_4pairINS_18__unwrap_ref_decayIT_E4typeENS4_IT0_E4typeEEEOS5_OS8_, symObjAddr: 0x7020, symBinAddr: 0x100008B48, symSize: 0x38 }
  - { offsetInCU: 0xB171, offset: 0xB171, size: 0x8, addend: 0x0, symName: __ZNSt3__119__allocator_destroyB8ue170006INS_9allocatorINS_6vectorIdNS1_IdEEEEEENS_16reverse_iteratorIPS4_EES8_EEvRT_T0_T1_, symObjAddr: 0x71AC, symBinAddr: 0x100008CD4, symSize: 0x70 }
  - { offsetInCU: 0xB1D4, offset: 0xB1D4, size: 0x8, addend: 0x0, symName: __ZNSt3__1neB8ue170006IPNS_6vectorIdNS_9allocatorIdEEEES5_EEbRKNS_16reverse_iteratorIT_EERKNS6_IT0_EE, symObjAddr: 0x7250, symBinAddr: 0x100008D78, symSize: 0x48 }
  - { offsetInCU: 0xB220, offset: 0xB220, size: 0x8, addend: 0x0, symName: __ZNSt3__112__to_addressB8ue170006INS_16reverse_iteratorIPNS_6vectorIdNS_9allocatorIdEEEEEEvEEu7__decayIDTclsr19__to_address_helperIT_EE6__callclsr3stdE7declvalIRKS8_EEEEESA_, symObjAddr: 0x7298, symBinAddr: 0x100008DC0, symSize: 0x24 }
  - { offsetInCU: 0xB27F, offset: 0xB27F, size: 0x8, addend: 0x0, symName: __ZNSt3__14prevB8ue170006IPNS_6vectorIdNS_9allocatorIdEEEEEENS_9enable_ifIXsr29__has_input_iterator_categoryIT_EE5valueES7_E4typeES7_NS_15iterator_traitsIS7_E15difference_typeE, symObjAddr: 0x7358, symBinAddr: 0x100008E80, symSize: 0x3C }
  - { offsetInCU: 0xB2C2, offset: 0xB2C2, size: 0x8, addend: 0x0, symName: __ZNSt3__121__convert_to_integralB8ue170006El, symObjAddr: 0x73CC, symBinAddr: 0x100008EF4, symSize: 0x14 }
  - { offsetInCU: 0xB2EE, offset: 0xB2EE, size: 0x8, addend: 0x0, symName: __ZNSt3__19__advanceB8ue170006IPNS_6vectorIdNS_9allocatorIdEEEEEEvRT_NS_15iterator_traitsIS6_E15difference_typeENS_26random_access_iterator_tagE, symObjAddr: 0x73E0, symBinAddr: 0x100008F08, symSize: 0x30 }
  - { offsetInCU: 0xB38A, offset: 0xB38A, size: 0x8, addend: 0x0, symName: __ZNSt3__130__uninitialized_allocator_copyB8ue170006INS_9allocatorINS_6vectorIdNS1_IdEEEEEEPS4_S6_S6_EET2_RT_T0_T1_S7_, symObjAddr: 0x7734, symBinAddr: 0x10000925C, symSize: 0x80 }
  - { offsetInCU: 0xB427, offset: 0xB427, size: 0x8, addend: 0x0, symName: __ZNSt3__114__unwrap_rangeB8ue170006IPNS_6vectorIdNS_9allocatorIdEEEES5_EEDaT_T0_, symObjAddr: 0x77B4, symBinAddr: 0x1000092DC, symSize: 0x3C }
  - { offsetInCU: 0xB473, offset: 0xB473, size: 0x8, addend: 0x0, symName: __ZNSt3__135__uninitialized_allocator_copy_implB8ue170006INS_9allocatorINS_6vectorIdNS1_IdEEEEEEPS4_S6_S6_EET2_RT_T0_T1_S7_, symObjAddr: 0x77F0, symBinAddr: 0x100009318, symSize: 0xF4 }
  - { offsetInCU: 0xB613, offset: 0xB613, size: 0x8, addend: 0x0, symName: __ZNSt3__112construct_atB8ue170006INS_6vectorIdNS_9allocatorIdEEEEJRS4_EPS4_EEPT_S8_DpOT0_, symObjAddr: 0x79DC, symBinAddr: 0x100009504, symSize: 0x3C }
  - { offsetInCU: 0xB683, offset: 0xB683, size: 0x8, addend: 0x0, symName: __ZNSt3__1eqB8ue170006IPNS_6vectorIdNS_9allocatorIdEEEEEEbRKNS_11__wrap_iterIT_EESA_, symObjAddr: 0x7A9C, symBinAddr: 0x1000095C4, symSize: 0x48 }
  - { offsetInCU: 0xB6C6, offset: 0xB6C6, size: 0x8, addend: 0x0, symName: __ZNSt3__1eqB8ue170006IPdEEbRKNS_11__wrap_iterIT_EES6_, symObjAddr: 0x7B80, symBinAddr: 0x1000096A8, symSize: 0x48 }
  - { offsetInCU: 0xB709, offset: 0xB709, size: 0x8, addend: 0x0, symName: __ZNSt3__18distanceB8ue170006IPKNS_6vectorIdNS_9allocatorIdEEEEEENS_15iterator_traitsIT_E15difference_typeES8_S8_, symObjAddr: 0x7DA0, symBinAddr: 0x1000098C8, symSize: 0x2C }
  - { offsetInCU: 0xB74C, offset: 0xB74C, size: 0x8, addend: 0x0, symName: __ZNSt3__14nextB8ue170006IPKNS_6vectorIdNS_9allocatorIdEEEEEENS_9enable_ifIXsr29__has_input_iterator_categoryIT_EE5valueES8_E4typeES8_NS_15iterator_traitsIS8_E15difference_typeE, symObjAddr: 0x7DCC, symBinAddr: 0x1000098F4, symSize: 0x34 }
  - { offsetInCU: 0xB78F, offset: 0xB78F, size: 0x8, addend: 0x0, symName: __ZNSt3__14copyB8ue170006IPKNS_6vectorIdNS_9allocatorIdEEEEPS4_EET0_T_S9_S8_, symObjAddr: 0x7E00, symBinAddr: 0x100009928, symSize: 0x40 }
  - { offsetInCU: 0xB7E9, offset: 0xB7E9, size: 0x8, addend: 0x0, symName: __ZNSt3__16__copyB8ue170006INS_17_ClassicAlgPolicyEPKNS_6vectorIdNS_9allocatorIdEEEES7_PS5_EENS_4pairIT0_T2_EESA_T1_SB_, symObjAddr: 0x7E40, symBinAddr: 0x100009968, symSize: 0x44 }
  - { offsetInCU: 0xB855, offset: 0xB855, size: 0x8, addend: 0x0, symName: __ZNSt3__19__advanceB8ue170006IPKNS_6vectorIdNS_9allocatorIdEEEEEEvRT_NS_15iterator_traitsIS7_E15difference_typeENS_26random_access_iterator_tagE, symObjAddr: 0x8050, symBinAddr: 0x100009B78, symSize: 0x30 }
  - { offsetInCU: 0xB89E, offset: 0xB89E, size: 0x8, addend: 0x0, symName: __ZNSt3__123__dispatch_copy_or_moveB8ue170006INS_17_ClassicAlgPolicyENS_11__copy_loopIS1_EENS_14__copy_trivialEPKNS_6vectorIdNS_9allocatorIdEEEESA_PS8_EENS_4pairIT2_T4_EESD_T3_SE_, symObjAddr: 0x8080, symBinAddr: 0x100009BA8, symSize: 0x44 }
  - { offsetInCU: 0xB91C, offset: 0xB91C, size: 0x8, addend: 0x0, symName: __ZNSt3__121__unwrap_and_dispatchB8ue170006INS_10__overloadINS_11__copy_loopINS_17_ClassicAlgPolicyEEENS_14__copy_trivialEEEPKNS_6vectorIdNS_9allocatorIdEEEESC_PSA_Li0EEENS_4pairIT0_T2_EESF_T1_SG_, symObjAddr: 0x80C4, symBinAddr: 0x100009BEC, symSize: 0xB4 }
  - { offsetInCU: 0xBAD0, offset: 0xBAD0, size: 0x8, addend: 0x0, symName: __ZNSt3__19make_pairB8ue170006IPKNS_6vectorIdNS_9allocatorIdEEEEPS4_EENS_4pairINS_18__unwrap_ref_decayIT_E4typeENS9_IT0_E4typeEEEOSA_OSD_, symObjAddr: 0x8200, symBinAddr: 0x100009D28, symSize: 0x38 }
  - { offsetInCU: 0xBB1F, offset: 0xBB1F, size: 0x8, addend: 0x0, symName: __ZNSt3__114__rewrap_rangeB8ue170006IPKNS_6vectorIdNS_9allocatorIdEEEES6_S6_EET0_S7_T1_, symObjAddr: 0x8238, symBinAddr: 0x100009D60, symSize: 0x2C }
  - { offsetInCU: 0xBB74, offset: 0xBB74, size: 0x8, addend: 0x0, symName: __ZNSt3__18distanceB8ue170006IPdEENS_15iterator_traitsIT_E15difference_typeES3_S3_, symObjAddr: 0x84CC, symBinAddr: 0x100009FF4, symSize: 0x2C }
  - { offsetInCU: 0xBBB7, offset: 0xBBB7, size: 0x8, addend: 0x0, symName: __ZNSt3__14nextB8ue170006IPdEENS_9enable_ifIXsr29__has_input_iterator_categoryIT_EE5valueES3_E4typeES3_NS_15iterator_traitsIS3_E15difference_typeE, symObjAddr: 0x84F8, symBinAddr: 0x10000A020, symSize: 0x34 }
  - { offsetInCU: 0xBBFA, offset: 0xBBFA, size: 0x8, addend: 0x0, symName: __ZNSt3__19__advanceB8ue170006IPdEEvRT_NS_15iterator_traitsIS2_E15difference_typeENS_26random_access_iterator_tagE, symObjAddr: 0x85F8, symBinAddr: 0x10000A120, symSize: 0x28 }
  - { offsetInCU: 0xBC43, offset: 0xBC43, size: 0x8, addend: 0x0, symName: __ZNSt3__110__distanceB8ue170006IPdEENS_15iterator_traitsIT_E15difference_typeES3_S3_NS_26random_access_iterator_tagE, symObjAddr: 0x8664, symBinAddr: 0x10000A18C, symSize: 0x28 }
  - { offsetInCU: 0xBC90, offset: 0xBC90, size: 0x8, addend: 0x0, symName: __ZNSt3__113__rewrap_iterB8ue170006IPKNS_6vectorIdNS_9allocatorIdEEEES6_NS_18__unwrap_iter_implIS6_Lb1EEEEET_S9_T0_, symObjAddr: 0x8728, symBinAddr: 0x10000A250, symSize: 0x3C }
  - { offsetInCU: 0xBCE5, offset: 0xBCE5, size: 0x8, addend: 0x0, symName: __ZNSt3__110__distanceB8ue170006IPKNS_6vectorIdNS_9allocatorIdEEEEEENS_15iterator_traitsIT_E15difference_typeES8_S8_NS_26random_access_iterator_tagE, symObjAddr: 0x88D0, symBinAddr: 0x10000A3F8, symSize: 0x28 }
  - { offsetInCU: 0xBD32, offset: 0xBD32, size: 0x8, addend: 0x0, symName: __ZNSt3__19use_facetB8ue170006INS_5ctypeIcEEEERKT_RKNS_6localeE, symObjAddr: 0x8BC4, symBinAddr: 0x10000A6EC, symSize: 0x2C }
  - { offsetInCU: 0xC1FF, offset: 0xC1FF, size: 0x8, addend: 0x0, symName: __ZNSt3__116__pad_and_outputB8ue170006IcNS_11char_traitsIcEEEENS_19ostreambuf_iteratorIT_T0_EES6_PKS4_S8_S8_RNS_8ios_baseES4_, symObjAddr: 0x8ED8, symBinAddr: 0x10000AA00, symSize: 0x240 }
  - { offsetInCU: 0xC2CE, offset: 0xC2CE, size: 0x8, addend: 0x0, symName: __ZNSt3__112__to_addressB8ue170006IcEEPT_S2_, symObjAddr: 0x9414, symBinAddr: 0x10000AF3C, symSize: 0x14 }
  - { offsetInCU: 0xC303, offset: 0xC303, size: 0x8, addend: 0x0, symName: __ZNSt3__112__to_addressB8ue170006IKcEEPT_S3_, symObjAddr: 0x9614, symBinAddr: 0x10000B13C, symSize: 0x14 }
  - { offsetInCU: 0xC36B, offset: 0xC36B, size: 0x8, addend: 0x0, symName: __ZNSt3__118__constexpr_strlenB8ue170006EPKc, symObjAddr: 0x9770, symBinAddr: 0x10000B298, symSize: 0x24 }
  - { offsetInCU: 0xC816, offset: 0xC816, size: 0x8, addend: 0x0, symName: __ZSt28__throw_bad_array_new_lengthB8ue170006v, symObjAddr: 0x3078, symBinAddr: 0x100004BA0, symSize: 0x34 }
  - { offsetInCU: 0xCE27, offset: 0xCE27, size: 0x8, addend: 0x0, symName: __ZNSt3__16vectorIdNS_9allocatorIdEEE26__swap_out_circular_bufferERNS_14__split_bufferIdRS2_EE, symObjAddr: 0x3E04, symBinAddr: 0x10000592C, symSize: 0x110 }
  - { offsetInCU: 0xF366, offset: 0xF366, size: 0x8, addend: 0x0, symName: __Z1fdd, symObjAddr: 0x0, symBinAddr: 0x100001B28, symSize: 0x70 }
  - { offsetInCU: 0xF3A5, offset: 0xF3A5, size: 0x8, addend: 0x0, symName: __ZN2df13first_partialERK5Point, symObjAddr: 0x70, symBinAddr: 0x100001B98, symSize: 0xF0 }
  - { offsetInCU: 0xF3ED, offset: 0xF3ED, size: 0x8, addend: 0x0, symName: __ZN2df14second_partialERK5Point, symObjAddr: 0x19C, symBinAddr: 0x100001CC4, symSize: 0x164 }
  - { offsetInCU: 0xF489, offset: 0xF489, size: 0x8, addend: 0x0, symName: __ZN2df12second_mixedERK5Point, symObjAddr: 0x300, symBinAddr: 0x100001E28, symSize: 0xF0 }
  - { offsetInCU: 0xF5AD, offset: 0xF5AD, size: 0x8, addend: 0x0, symName: __ZN5PointC1Edd, symObjAddr: 0x160, symBinAddr: 0x100001C88, symSize: 0x3C }
  - { offsetInCU: 0xF5F7, offset: 0xF5F7, size: 0x8, addend: 0x0, symName: __ZN6Matrix8multiplyERKNSt3__16vectorINS1_IdNS0_9allocatorIdEEEENS2_IS4_EEEES8_, symObjAddr: 0x3F0, symBinAddr: 0x100001F18, symSize: 0x254 }
  - { offsetInCU: 0xF6B0, offset: 0xF6B0, size: 0x8, addend: 0x0, symName: __ZN6Matrix5gesseERK5Point, symObjAddr: 0x828, symBinAddr: 0x100002350, symSize: 0x208 }
  - { offsetInCU: 0xF6FB, offset: 0xF6FB, size: 0x8, addend: 0x0, symName: __ZN6Matrix3detERKNSt3__16vectorINS1_IdNS0_9allocatorIdEEEENS2_IS4_EEEE, symObjAddr: 0xAD4, symBinAddr: 0x1000025FC, symSize: 0xA4 }
  - { offsetInCU: 0xF727, offset: 0xF727, size: 0x8, addend: 0x0, symName: __ZN6Matrix9transposeERKNSt3__16vectorINS1_IdNS0_9allocatorIdEEEENS2_IS4_EEEE, symObjAddr: 0xB78, symBinAddr: 0x1000026A0, symSize: 0x260 }
  - { offsetInCU: 0xF754, offset: 0xF754, size: 0x8, addend: 0x0, symName: __ZN6Matrix8cofactorERKNSt3__16vectorINS1_IdNS0_9allocatorIdEEEENS2_IS4_EEEE, symObjAddr: 0xDD8, symBinAddr: 0x100002900, symSize: 0x268 }
  - { offsetInCU: 0xF781, offset: 0xF781, size: 0x8, addend: 0x0, symName: __ZN6Matrix7inverseERKNSt3__16vectorINS1_IdNS0_9allocatorIdEEEENS2_IS4_EEEE, symObjAddr: 0x1040, symBinAddr: 0x100002B68, symSize: 0x2F4 }
  - { offsetInCU: 0xF7E8, offset: 0xF7E8, size: 0x8, addend: 0x0, symName: __ZNKSt3__16vectorINS0_IdNS_9allocatorIdEEEENS1_IS3_EEE4sizeB8ue170006Ev, symObjAddr: 0x644, symBinAddr: 0x10000216C, symSize: 0x28 }
  - { offsetInCU: 0xF80E, offset: 0xF80E, size: 0x8, addend: 0x0, symName: __ZNSt3__16vectorINS0_IdNS_9allocatorIdEEEENS1_IS3_EEEC1Em, symObjAddr: 0x66C, symBinAddr: 0x100002194, symSize: 0x34 }
  - { offsetInCU: 0xF849, offset: 0xF849, size: 0x8, addend: 0x0, symName: __ZNSt3__16vectorINS0_IdNS_9allocatorIdEEEENS1_IS3_EEEixB8ue170006Em, symObjAddr: 0x6A0, symBinAddr: 0x1000021C8, symSize: 0x2C }
  - { offsetInCU: 0xF880, offset: 0xF880, size: 0x8, addend: 0x0, symName: __ZNSt3__16vectorIdNS_9allocatorIdEEE6resizeEm, symObjAddr: 0x6CC, symBinAddr: 0x1000021F4, symSize: 0x94 }
  - { offsetInCU: 0xF8C6, offset: 0xF8C6, size: 0x8, addend: 0x0, symName: __ZNKSt3__16vectorINS0_IdNS_9allocatorIdEEEENS1_IS3_EEEixB8ue170006Em, symObjAddr: 0x760, symBinAddr: 0x100002288, symSize: 0x2C }
  - { offsetInCU: 0xF8FD, offset: 0xF8FD, size: 0x8, addend: 0x0, symName: __ZNKSt3__16vectorIdNS_9allocatorIdEEE4sizeB8ue170006Ev, symObjAddr: 0x78C, symBinAddr: 0x1000022B4, symSize: 0x28 }
  - { offsetInCU: 0xF923, offset: 0xF923, size: 0x8, addend: 0x0, symName: __ZNSt3__16vectorIdNS_9allocatorIdEEEixB8ue170006Em, symObjAddr: 0x7B4, symBinAddr: 0x1000022DC, symSize: 0x24 }
  - { offsetInCU: 0xF95A, offset: 0xF95A, size: 0x8, addend: 0x0, symName: __ZNKSt3__16vectorIdNS_9allocatorIdEEEixB8ue170006Em, symObjAddr: 0x7D8, symBinAddr: 0x100002300, symSize: 0x24 }
  - { offsetInCU: 0xF991, offset: 0xF991, size: 0x8, addend: 0x0, symName: __ZNSt3__16vectorINS0_IdNS_9allocatorIdEEEENS1_IS3_EEED1B8ue170006Ev, symObjAddr: 0x7FC, symBinAddr: 0x100002324, symSize: 0x2C }
  - { offsetInCU: 0xF9BB, offset: 0xF9BB, size: 0x8, addend: 0x0, symName: __ZNSt3__16vectorIdNS_9allocatorIdEEEC1B8ue170006ESt16initializer_listIdE, symObjAddr: 0xA30, symBinAddr: 0x100002558, symSize: 0x3C }
  - { offsetInCU: 0xF9F6, offset: 0xF9F6, size: 0x8, addend: 0x0, symName: __ZNSt3__16vectorIdNS_9allocatorIdEEED1B8ue170006Ev, symObjAddr: 0xA6C, symBinAddr: 0x100002594, symSize: 0x2C }
  - { offsetInCU: 0xFA20, offset: 0xFA20, size: 0x8, addend: 0x0, symName: __ZNSt3__16vectorINS0_IdNS_9allocatorIdEEEENS1_IS3_EEEC1B8ue170006ESt16initializer_listIS3_E, symObjAddr: 0xA98, symBinAddr: 0x1000025C0, symSize: 0x3C }
  - { offsetInCU: 0xFA5A, offset: 0xFA5A, size: 0x8, addend: 0x0, symName: __ZmldRKNSt3__16vectorINS0_IdNS_9allocatorIdEEEENS1_IS3_EEEE, symObjAddr: 0x1334, symBinAddr: 0x100002E5C, symSize: 0x130 }
  - { offsetInCU: 0xFB46, offset: 0xFB46, size: 0x8, addend: 0x0, symName: __ZNSt3__16vectorINS0_IdNS_9allocatorIdEEEENS1_IS3_EEEC1ERKS5_, symObjAddr: 0x1464, symBinAddr: 0x100002F8C, symSize: 0x34 }
  - { offsetInCU: 0xFB81, offset: 0xFB81, size: 0x8, addend: 0x0, symName: __ZNSt3__16vectorINS0_IdNS_9allocatorIdEEEENS1_IS3_EEE5beginB8ue170006Ev, symObjAddr: 0x1498, symBinAddr: 0x100002FC0, symSize: 0x30 }
  - { offsetInCU: 0xFBA9, offset: 0xFBA9, size: 0x8, addend: 0x0, symName: __ZNSt3__16vectorINS0_IdNS_9allocatorIdEEEENS1_IS3_EEE3endB8ue170006Ev, symObjAddr: 0x14C8, symBinAddr: 0x100002FF0, symSize: 0x30 }
  - { offsetInCU: 0xFBD1, offset: 0xFBD1, size: 0x8, addend: 0x0, symName: __ZNKSt3__111__wrap_iterIPNS_6vectorIdNS_9allocatorIdEEEEEdeB8ue170006Ev, symObjAddr: 0x152C, symBinAddr: 0x100003054, symSize: 0x18 }
  - { offsetInCU: 0xFBF7, offset: 0xFBF7, size: 0x8, addend: 0x0, symName: __ZNSt3__16vectorIdNS_9allocatorIdEEE5beginB8ue170006Ev, symObjAddr: 0x1544, symBinAddr: 0x10000306C, symSize: 0x30 }
  - { offsetInCU: 0xFC1F, offset: 0xFC1F, size: 0x8, addend: 0x0, symName: __ZNSt3__16vectorIdNS_9allocatorIdEEE3endB8ue170006Ev, symObjAddr: 0x1574, symBinAddr: 0x10000309C, symSize: 0x30 }
  - { offsetInCU: 0xFC47, offset: 0xFC47, size: 0x8, addend: 0x0, symName: __ZNKSt3__111__wrap_iterIPdEdeB8ue170006Ev, symObjAddr: 0x15D8, symBinAddr: 0x100003100, symSize: 0x18 }
  - { offsetInCU: 0xFC6D, offset: 0xFC6D, size: 0x8, addend: 0x0, symName: __ZNSt3__111__wrap_iterIPdEppB8ue170006Ev, symObjAddr: 0x15F0, symBinAddr: 0x100003118, symSize: 0x20 }
  - { offsetInCU: 0xFC93, offset: 0xFC93, size: 0x8, addend: 0x0, symName: __ZNSt3__111__wrap_iterIPNS_6vectorIdNS_9allocatorIdEEEEEppB8ue170006Ev, symObjAddr: 0x1610, symBinAddr: 0x100003138, symSize: 0x20 }
  - { offsetInCU: 0xFCB8, offset: 0xFCB8, size: 0x8, addend: 0x0, symName: __Z4normRK5Point, symObjAddr: 0x1630, symBinAddr: 0x100003158, symSize: 0x4C }
  - { offsetInCU: 0xFCF2, offset: 0xFCF2, size: 0x8, addend: 0x0, symName: __Z8get_stepRK5Point, symObjAddr: 0x167C, symBinAddr: 0x1000031A4, symSize: 0x458 }
  - { offsetInCU: 0xFD79, offset: 0xFD79, size: 0x8, addend: 0x0, symName: __Z16get_raphson_stepRK5Point, symObjAddr: 0x1AD4, symBinAddr: 0x1000035FC, symSize: 0x500 }
  - { offsetInCU: 0xFE10, offset: 0xFE10, size: 0x8, addend: 0x0, symName: __ZNSt3__16vectorINS0_IdNS_9allocatorIdEEEENS1_IS3_EEEaSB8ue170006ESt16initializer_listIS3_E, symObjAddr: 0x1FD4, symBinAddr: 0x100003AFC, symSize: 0x60 }
  - { offsetInCU: 0xFE45, offset: 0xFE45, size: 0x8, addend: 0x0, symName: _main, symObjAddr: 0x2034, symBinAddr: 0x100003B5C, symSize: 0x44C }
  - { offsetInCU: 0xFE9F, offset: 0xFE9F, size: 0x8, addend: 0x0, symName: __ZN5PointmIERKS_, symObjAddr: 0x2480, symBinAddr: 0x100003FA8, symSize: 0x40 }
  - { offsetInCU: 0xFED3, offset: 0xFED3, size: 0x8, addend: 0x0, symName: __ZNSt3__113basic_ostreamIcNS_11char_traitsIcEEElsB8ue170006EPFRS3_S4_E, symObjAddr: 0x2670, symBinAddr: 0x100004198, symSize: 0x2C }
  - { offsetInCU: 0xFF07, offset: 0xFF07, size: 0x8, addend: 0x0, symName: __ZNK5Point4calcEv, symObjAddr: 0x26F4, symBinAddr: 0x10000421C, symSize: 0x3C }
  - { offsetInCU: 0xFF2D, offset: 0xFF2D, size: 0x8, addend: 0x0, symName: __ZN5PointC2Edd, symObjAddr: 0x2730, symBinAddr: 0x100004258, symSize: 0x2C }
  - { offsetInCU: 0xFF73, offset: 0xFF73, size: 0x8, addend: 0x0, symName: __ZNSt3__16vectorINS0_IdNS_9allocatorIdEEEENS1_IS3_EEEC2Em, symObjAddr: 0x275C, symBinAddr: 0x100004284, symSize: 0xD4 }
  - { offsetInCU: 0xFFCF, offset: 0xFFCF, size: 0x8, addend: 0x0, symName: __ZNSt3__117__compressed_pairIPNS_6vectorIdNS_9allocatorIdEEEENS2_IS4_EEEC1B8ue170006IDnNS_18__default_init_tagEEEOT_OT0_, symObjAddr: 0x2830, symBinAddr: 0x100004358, symSize: 0x3C }
  - { offsetInCU: 0x10027, offset: 0x10027, size: 0x8, addend: 0x0, symName: __ZNSt3__16vectorINS0_IdNS_9allocatorIdEEEENS1_IS3_EEE16__destroy_vectorC1B8ue170006ERS5_, symObjAddr: 0x28AC, symBinAddr: 0x1000043D4, symSize: 0x34 }
  - { offsetInCU: 0x10060, offset: 0x10060, size: 0x8, addend: 0x0, symName: __ZNSt3__16vectorINS0_IdNS_9allocatorIdEEEENS1_IS3_EEE11__vallocateB8ue170006Em, symObjAddr: 0x28E0, symBinAddr: 0x100004408, symSize: 0xB4 }
  - { offsetInCU: 0x100A4, offset: 0x100A4, size: 0x8, addend: 0x0, symName: __ZNSt3__16vectorINS0_IdNS_9allocatorIdEEEENS1_IS3_EEE18__construct_at_endEm, symObjAddr: 0x2994, symBinAddr: 0x1000044BC, symSize: 0xC8 }
  - { offsetInCU: 0x10116, offset: 0x10116, size: 0x8, addend: 0x0, symName: __ZNSt3__128__exception_guard_exceptionsINS_6vectorINS1_IdNS_9allocatorIdEEEENS2_IS4_EEE16__destroy_vectorEE10__completeB8ue170006Ev, symObjAddr: 0x2A5C, symBinAddr: 0x100004584, symSize: 0x1C }
  - { offsetInCU: 0x1013C, offset: 0x1013C, size: 0x8, addend: 0x0, symName: __ZNSt3__128__exception_guard_exceptionsINS_6vectorINS1_IdNS_9allocatorIdEEEENS2_IS4_EEE16__destroy_vectorEED1B8ue170006Ev, symObjAddr: 0x2A78, symBinAddr: 0x1000045A0, symSize: 0x2C }
  - { offsetInCU: 0x10166, offset: 0x10166, size: 0x8, addend: 0x0, symName: __ZNSt3__117__compressed_pairIPNS_6vectorIdNS_9allocatorIdEEEENS2_IS4_EEEC2B8ue170006IDnNS_18__default_init_tagEEEOT_OT0_, symObjAddr: 0x2AA4, symBinAddr: 0x1000045CC, symSize: 0x40 }
  - { offsetInCU: 0x101BE, offset: 0x101BE, size: 0x8, addend: 0x0, symName: __ZNSt3__122__compressed_pair_elemIPNS_6vectorIdNS_9allocatorIdEEEELi0ELb0EEC2B8ue170006IDnvEEOT_, symObjAddr: 0x2AE4, symBinAddr: 0x10000460C, symSize: 0x1C }
  - { offsetInCU: 0x10200, offset: 0x10200, size: 0x8, addend: 0x0, symName: __ZNSt3__122__compressed_pair_elemINS_9allocatorINS_6vectorIdNS1_IdEEEEEELi1ELb1EEC2B8ue170006ENS_18__default_init_tagE, symObjAddr: 0x2B00, symBinAddr: 0x100004628, symSize: 0x2C }
  - { offsetInCU: 0x10234, offset: 0x10234, size: 0x8, addend: 0x0, symName: __ZNSt3__19allocatorINS_6vectorIdNS0_IdEEEEEC2B8ue170006Ev, symObjAddr: 0x2B2C, symBinAddr: 0x100004654, symSize: 0x2C }
  - { offsetInCU: 0x1025E, offset: 0x1025E, size: 0x8, addend: 0x0, symName: __ZNSt3__116__non_trivial_ifILb1ENS_9allocatorINS_6vectorIdNS1_IdEEEEEEEC2B8ue170006Ev, symObjAddr: 0x2B58, symBinAddr: 0x100004680, symSize: 0x14 }
  - { offsetInCU: 0x10288, offset: 0x10288, size: 0x8, addend: 0x0, symName: __ZNSt3__128__exception_guard_exceptionsINS_6vectorINS1_IdNS_9allocatorIdEEEENS2_IS4_EEE16__destroy_vectorEEC1B8ue170006ES7_, symObjAddr: 0x2B6C, symBinAddr: 0x100004694, symSize: 0x34 }
  - { offsetInCU: 0x102C0, offset: 0x102C0, size: 0x8, addend: 0x0, symName: __ZNSt3__128__exception_guard_exceptionsINS_6vectorINS1_IdNS_9allocatorIdEEEENS2_IS4_EEE16__destroy_vectorEEC2B8ue170006ES7_, symObjAddr: 0x2BA0, symBinAddr: 0x1000046C8, symSize: 0x24 }
  - { offsetInCU: 0x102F8, offset: 0x102F8, size: 0x8, addend: 0x0, symName: __ZNSt3__16vectorINS0_IdNS_9allocatorIdEEEENS1_IS3_EEE16__destroy_vectorC2B8ue170006ERS5_, symObjAddr: 0x2BC4, symBinAddr: 0x1000046EC, symSize: 0x20 }
  - { offsetInCU: 0x10331, offset: 0x10331, size: 0x8, addend: 0x0, symName: __ZNKSt3__16vectorINS0_IdNS_9allocatorIdEEEENS1_IS3_EEE8max_sizeEv, symObjAddr: 0x2BE4, symBinAddr: 0x10000470C, symSize: 0x60 }
  - { offsetInCU: 0x10359, offset: 0x10359, size: 0x8, addend: 0x0, symName: __ZNKSt3__16vectorINS0_IdNS_9allocatorIdEEEENS1_IS3_EEE20__throw_length_errorB8ue170006Ev, symObjAddr: 0x2C44, symBinAddr: 0x10000476C, symSize: 0x1C }
  - { offsetInCU: 0x1037F, offset: 0x1037F, size: 0x8, addend: 0x0, symName: __ZNSt3__16vectorINS0_IdNS_9allocatorIdEEEENS1_IS3_EEE7__allocB8ue170006Ev, symObjAddr: 0x2CA0, symBinAddr: 0x1000047C8, symSize: 0x28 }
  - { offsetInCU: 0x103A5, offset: 0x103A5, size: 0x8, addend: 0x0, symName: __ZNSt3__16vectorINS0_IdNS_9allocatorIdEEEENS1_IS3_EEE9__end_capB8ue170006Ev, symObjAddr: 0x2CC8, symBinAddr: 0x1000047F0, symSize: 0x28 }
  - { offsetInCU: 0x103CB, offset: 0x103CB, size: 0x8, addend: 0x0, symName: __ZNKSt3__16vectorINS0_IdNS_9allocatorIdEEEENS1_IS3_EEE14__annotate_newB8ue170006Em, symObjAddr: 0x2CF0, symBinAddr: 0x100004818, symSize: 0xC8 }
  - { offsetInCU: 0x1040A, offset: 0x1040A, size: 0x8, addend: 0x0, symName: __ZNSt3__116allocator_traitsINS_9allocatorINS_6vectorIdNS1_IdEEEEEEE8max_sizeB8ue170006IS5_vvEEmRKS5_, symObjAddr: 0x2DE4, symBinAddr: 0x10000490C, symSize: 0x28 }
  - { offsetInCU: 0x10435, offset: 0x10435, size: 0x8, addend: 0x0, symName: __ZNKSt3__16vectorINS0_IdNS_9allocatorIdEEEENS1_IS3_EEE7__allocB8ue170006Ev, symObjAddr: 0x2E0C, symBinAddr: 0x100004934, symSize: 0x28 }
  - { offsetInCU: 0x1045B, offset: 0x1045B, size: 0x8, addend: 0x0, symName: __ZNSt3__114numeric_limitsIlE3maxB8ue170006Ev, symObjAddr: 0x2E34, symBinAddr: 0x10000495C, symSize: 0x14 }
  - { offsetInCU: 0x10483, offset: 0x10483, size: 0x8, addend: 0x0, symName: __ZNKSt3__16__lessIvvEclB8ue170006ImmEEbRKT_RKT0_, symObjAddr: 0x2EA8, symBinAddr: 0x1000049D0, symSize: 0x34 }
  - { offsetInCU: 0x104D7, offset: 0x104D7, size: 0x8, addend: 0x0, symName: __ZNSt3__114numeric_limitsImE3maxB8ue170006Ev, symObjAddr: 0x2EDC, symBinAddr: 0x100004A04, symSize: 0x14 }
  - { offsetInCU: 0x104EB, offset: 0x104EB, size: 0x8, addend: 0x0, symName: __ZNSt3__123__libcpp_numeric_limitsImLb1EE3maxB8ue170006Ev, symObjAddr: 0x2EF0, symBinAddr: 0x100004A18, symSize: 0x8 }
  - { offsetInCU: 0x104FF, offset: 0x104FF, size: 0x8, addend: 0x0, symName: __ZNKSt3__117__compressed_pairIPNS_6vectorIdNS_9allocatorIdEEEENS2_IS4_EEE6secondB8ue170006Ev, symObjAddr: 0x2EF8, symBinAddr: 0x100004A20, symSize: 0x24 }
  - { offsetInCU: 0x10525, offset: 0x10525, size: 0x8, addend: 0x0, symName: __ZNKSt3__122__compressed_pair_elemINS_9allocatorINS_6vectorIdNS1_IdEEEEEELi1ELb1EE5__getB8ue170006Ev, symObjAddr: 0x2F1C, symBinAddr: 0x100004A44, symSize: 0x14 }
  - { offsetInCU: 0x1054B, offset: 0x1054B, size: 0x8, addend: 0x0, symName: __ZNSt3__123__libcpp_numeric_limitsIlLb1EE3maxB8ue170006Ev, symObjAddr: 0x2F30, symBinAddr: 0x100004A58, symSize: 0x8 }
  - { offsetInCU: 0x1055F, offset: 0x1055F, size: 0x8, addend: 0x0, symName: __ZNSt12length_errorC1B8ue170006EPKc, symObjAddr: 0x2F9C, symBinAddr: 0x100004AC4, symSize: 0x34 }
  - { offsetInCU: 0x10597, offset: 0x10597, size: 0x8, addend: 0x0, symName: __ZNSt12length_errorC2B8ue170006EPKc, symObjAddr: 0x2FD0, symBinAddr: 0x100004AF8, symSize: 0x4C }
  - { offsetInCU: 0x105CF, offset: 0x105CF, size: 0x8, addend: 0x0, symName: __ZNSt3__19allocatorINS_6vectorIdNS0_IdEEEEE8allocateB8ue170006Em, symObjAddr: 0x301C, symBinAddr: 0x100004B44, symSize: 0x5C }
  - { offsetInCU: 0x10603, offset: 0x10603, size: 0x8, addend: 0x0, symName: __ZNSt3__117__compressed_pairIPNS_6vectorIdNS_9allocatorIdEEEENS2_IS4_EEE6secondB8ue170006Ev, symObjAddr: 0x317C, symBinAddr: 0x100004CA4, symSize: 0x24 }
  - { offsetInCU: 0x10629, offset: 0x10629, size: 0x8, addend: 0x0, symName: __ZNSt3__122__compressed_pair_elemINS_9allocatorINS_6vectorIdNS1_IdEEEEEELi1ELb1EE5__getB8ue170006Ev, symObjAddr: 0x31A0, symBinAddr: 0x100004CC8, symSize: 0x14 }
  - { offsetInCU: 0x1064F, offset: 0x1064F, size: 0x8, addend: 0x0, symName: __ZNSt3__117__compressed_pairIPNS_6vectorIdNS_9allocatorIdEEEENS2_IS4_EEE5firstB8ue170006Ev, symObjAddr: 0x31B4, symBinAddr: 0x100004CDC, symSize: 0x24 }
  - { offsetInCU: 0x10675, offset: 0x10675, size: 0x8, addend: 0x0, symName: __ZNSt3__122__compressed_pair_elemIPNS_6vectorIdNS_9allocatorIdEEEELi0ELb0EE5__getB8ue170006Ev, symObjAddr: 0x31D8, symBinAddr: 0x100004D00, symSize: 0x14 }
  - { offsetInCU: 0x1069B, offset: 0x1069B, size: 0x8, addend: 0x0, symName: __ZNKSt3__16vectorINS0_IdNS_9allocatorIdEEEENS1_IS3_EEE31__annotate_contiguous_containerB8ue170006EPKvS7_S7_S7_, symObjAddr: 0x31EC, symBinAddr: 0x100004D14, symSize: 0x20 }
  - { offsetInCU: 0x106ED, offset: 0x106ED, size: 0x8, addend: 0x0, symName: __ZNKSt3__16vectorINS0_IdNS_9allocatorIdEEEENS1_IS3_EEE4dataB8ue170006Ev, symObjAddr: 0x320C, symBinAddr: 0x100004D34, symSize: 0x28 }
  - { offsetInCU: 0x10713, offset: 0x10713, size: 0x8, addend: 0x0, symName: __ZNKSt3__16vectorINS0_IdNS_9allocatorIdEEEENS1_IS3_EEE8capacityB8ue170006Ev, symObjAddr: 0x3234, symBinAddr: 0x100004D5C, symSize: 0x40 }
  - { offsetInCU: 0x10739, offset: 0x10739, size: 0x8, addend: 0x0, symName: __ZNKSt3__16vectorINS0_IdNS_9allocatorIdEEEENS1_IS3_EEE9__end_capB8ue170006Ev, symObjAddr: 0x3288, symBinAddr: 0x100004DB0, symSize: 0x28 }
  - { offsetInCU: 0x1075F, offset: 0x1075F, size: 0x8, addend: 0x0, symName: __ZNKSt3__117__compressed_pairIPNS_6vectorIdNS_9allocatorIdEEEENS2_IS4_EEE5firstB8ue170006Ev, symObjAddr: 0x32B0, symBinAddr: 0x100004DD8, symSize: 0x24 }
  - { offsetInCU: 0x10785, offset: 0x10785, size: 0x8, addend: 0x0, symName: __ZNKSt3__122__compressed_pair_elemIPNS_6vectorIdNS_9allocatorIdEEEELi0ELb0EE5__getB8ue170006Ev, symObjAddr: 0x32D4, symBinAddr: 0x100004DFC, symSize: 0x14 }
  - { offsetInCU: 0x107C4, offset: 0x107C4, size: 0x8, addend: 0x0, symName: __ZNSt3__16vectorINS0_IdNS_9allocatorIdEEEENS1_IS3_EEE21_ConstructTransactionC1B8ue170006ERS5_m, symObjAddr: 0x32E8, symBinAddr: 0x100004E10, symSize: 0x3C }
  - { offsetInCU: 0x1080C, offset: 0x1080C, size: 0x8, addend: 0x0, symName: __ZNSt3__116allocator_traitsINS_9allocatorINS_6vectorIdNS1_IdEEEEEEE9constructB8ue170006IS4_JEvvEEvRS5_PT_DpOT0_, symObjAddr: 0x3324, symBinAddr: 0x100004E4C, symSize: 0x28 }
  - { offsetInCU: 0x1084B, offset: 0x1084B, size: 0x8, addend: 0x0, symName: __ZNSt3__16vectorINS0_IdNS_9allocatorIdEEEENS1_IS3_EEE21_ConstructTransactionD1B8ue170006Ev, symObjAddr: 0x334C, symBinAddr: 0x100004E74, symSize: 0x2C }
  - { offsetInCU: 0x10875, offset: 0x10875, size: 0x8, addend: 0x0, symName: __ZNSt3__16vectorINS0_IdNS_9allocatorIdEEEENS1_IS3_EEE21_ConstructTransactionC2B8ue170006ERS5_m, symObjAddr: 0x3378, symBinAddr: 0x100004EA0, symSize: 0x4C }
  - { offsetInCU: 0x108BD, offset: 0x108BD, size: 0x8, addend: 0x0, symName: __ZNSt3__16vectorIdNS_9allocatorIdEEEC1B8ue170006Ev, symObjAddr: 0x33F8, symBinAddr: 0x100004F20, symSize: 0x2C }
  - { offsetInCU: 0x108E7, offset: 0x108E7, size: 0x8, addend: 0x0, symName: __ZNSt3__16vectorIdNS_9allocatorIdEEEC2B8ue170006Ev, symObjAddr: 0x3424, symBinAddr: 0x100004F4C, symSize: 0x4C }
  - { offsetInCU: 0x10911, offset: 0x10911, size: 0x8, addend: 0x0, symName: __ZNSt3__117__compressed_pairIPdNS_9allocatorIdEEEC1B8ue170006IDnNS_18__default_init_tagEEEOT_OT0_, symObjAddr: 0x3470, symBinAddr: 0x100004F98, symSize: 0x3C }
  - { offsetInCU: 0x10969, offset: 0x10969, size: 0x8, addend: 0x0, symName: __ZNSt3__117__compressed_pairIPdNS_9allocatorIdEEEC2B8ue170006IDnNS_18__default_init_tagEEEOT_OT0_, symObjAddr: 0x34AC, symBinAddr: 0x100004FD4, symSize: 0x40 }
  - { offsetInCU: 0x109C1, offset: 0x109C1, size: 0x8, addend: 0x0, symName: __ZNSt3__122__compressed_pair_elemIPdLi0ELb0EEC2B8ue170006IDnvEEOT_, symObjAddr: 0x34EC, symBinAddr: 0x100005014, symSize: 0x1C }
  - { offsetInCU: 0x10A03, offset: 0x10A03, size: 0x8, addend: 0x0, symName: __ZNSt3__122__compressed_pair_elemINS_9allocatorIdEELi1ELb1EEC2B8ue170006ENS_18__default_init_tagE, symObjAddr: 0x3508, symBinAddr: 0x100005030, symSize: 0x2C }
  - { offsetInCU: 0x10A37, offset: 0x10A37, size: 0x8, addend: 0x0, symName: __ZNSt3__19allocatorIdEC2B8ue170006Ev, symObjAddr: 0x3534, symBinAddr: 0x10000505C, symSize: 0x2C }
  - { offsetInCU: 0x10A61, offset: 0x10A61, size: 0x8, addend: 0x0, symName: __ZNSt3__116__non_trivial_ifILb1ENS_9allocatorIdEEEC2B8ue170006Ev, symObjAddr: 0x3560, symBinAddr: 0x100005088, symSize: 0x14 }
  - { offsetInCU: 0x10A8B, offset: 0x10A8B, size: 0x8, addend: 0x0, symName: __ZNSt3__16vectorINS0_IdNS_9allocatorIdEEEENS1_IS3_EEE21_ConstructTransactionD2B8ue170006Ev, symObjAddr: 0x3574, symBinAddr: 0x10000509C, symSize: 0x20 }
  - { offsetInCU: 0x10AB5, offset: 0x10AB5, size: 0x8, addend: 0x0, symName: __ZNSt3__128__exception_guard_exceptionsINS_6vectorINS1_IdNS_9allocatorIdEEEENS2_IS4_EEE16__destroy_vectorEED2B8ue170006Ev, symObjAddr: 0x3594, symBinAddr: 0x1000050BC, symSize: 0x50 }
  - { offsetInCU: 0x10ADF, offset: 0x10ADF, size: 0x8, addend: 0x0, symName: __ZNSt3__16vectorINS0_IdNS_9allocatorIdEEEENS1_IS3_EEE16__destroy_vectorclB8ue170006Ev, symObjAddr: 0x35E4, symBinAddr: 0x10000510C, symSize: 0x90 }
  - { offsetInCU: 0x10B05, offset: 0x10B05, size: 0x8, addend: 0x0, symName: __ZNSt3__16vectorINS0_IdNS_9allocatorIdEEEENS1_IS3_EEE7__clearB8ue170006Ev, symObjAddr: 0x3674, symBinAddr: 0x10000519C, symSize: 0x28 }
  - { offsetInCU: 0x10B2B, offset: 0x10B2B, size: 0x8, addend: 0x0, symName: __ZNKSt3__16vectorINS0_IdNS_9allocatorIdEEEENS1_IS3_EEE17__annotate_deleteB8ue170006Ev, symObjAddr: 0x369C, symBinAddr: 0x1000051C4, symSize: 0xD4 }
  - { offsetInCU: 0x10B51, offset: 0x10B51, size: 0x8, addend: 0x0, symName: __ZNSt3__116allocator_traitsINS_9allocatorINS_6vectorIdNS1_IdEEEEEEE10deallocateB8ue170006ERS5_PS4_m, symObjAddr: 0x3770, symBinAddr: 0x100005298, symSize: 0x34 }
  - { offsetInCU: 0x10B93, offset: 0x10B93, size: 0x8, addend: 0x0, symName: __ZNSt3__16vectorINS0_IdNS_9allocatorIdEEEENS1_IS3_EEE22__base_destruct_at_endB8ue170006EPS3_, symObjAddr: 0x37A4, symBinAddr: 0x1000052CC, symSize: 0x8C }
  - { offsetInCU: 0x10BD7, offset: 0x10BD7, size: 0x8, addend: 0x0, symName: __ZNSt3__116allocator_traitsINS_9allocatorINS_6vectorIdNS1_IdEEEEEEE7destroyB8ue170006IS4_vvEEvRS5_PT_, symObjAddr: 0x3830, symBinAddr: 0x100005358, symSize: 0x28 }
  - { offsetInCU: 0x10C11, offset: 0x10C11, size: 0x8, addend: 0x0, symName: __ZNSt3__19allocatorINS_6vectorIdNS0_IdEEEEE10deallocateB8ue170006EPS3_m, symObjAddr: 0x38A0, symBinAddr: 0x1000053C8, symSize: 0x44 }
  - { offsetInCU: 0x10C53, offset: 0x10C53, size: 0x8, addend: 0x0, symName: __ZNSt3__16vectorIdNS_9allocatorIdEEE8__appendEm, symObjAddr: 0x39EC, symBinAddr: 0x100005514, symSize: 0x108 }
  - { offsetInCU: 0x10CAE, offset: 0x10CAE, size: 0x8, addend: 0x0, symName: __ZNSt3__16vectorIdNS_9allocatorIdEEE17__destruct_at_endB8ue170006EPd, symObjAddr: 0x3AF4, symBinAddr: 0x10000561C, symSize: 0x4C }
  - { offsetInCU: 0x10CF2, offset: 0x10CF2, size: 0x8, addend: 0x0, symName: __ZNSt3__16vectorIdNS_9allocatorIdEEE9__end_capB8ue170006Ev, symObjAddr: 0x3B40, symBinAddr: 0x100005668, symSize: 0x28 }
  - { offsetInCU: 0x10D18, offset: 0x10D18, size: 0x8, addend: 0x0, symName: __ZNSt3__16vectorIdNS_9allocatorIdEEE18__construct_at_endEm, symObjAddr: 0x3B68, symBinAddr: 0x100005690, symSize: 0xC8 }
  - { offsetInCU: 0x10D8A, offset: 0x10D8A, size: 0x8, addend: 0x0, symName: __ZNSt3__16vectorIdNS_9allocatorIdEEE7__allocB8ue170006Ev, symObjAddr: 0x3C30, symBinAddr: 0x100005758, symSize: 0x28 }
  - { offsetInCU: 0x10DB0, offset: 0x10DB0, size: 0x8, addend: 0x0, symName: __ZNKSt3__16vectorIdNS_9allocatorIdEEE11__recommendB8ue170006Em, symObjAddr: 0x3C58, symBinAddr: 0x100005780, symSize: 0xB4 }
  - { offsetInCU: 0x10E05, offset: 0x10E05, size: 0x8, addend: 0x0, symName: __ZNSt3__114__split_bufferIdRNS_9allocatorIdEEEC1EmmS3_, symObjAddr: 0x3D0C, symBinAddr: 0x100005834, symSize: 0x44 }
  - { offsetInCU: 0x10E5B, offset: 0x10E5B, size: 0x8, addend: 0x0, symName: __ZNSt3__114__split_bufferIdRNS_9allocatorIdEEE18__construct_at_endEm, symObjAddr: 0x3D50, symBinAddr: 0x100005878, symSize: 0xB4 }
  - { offsetInCU: 0x10EA0, offset: 0x10EA0, size: 0x8, addend: 0x0, symName: __ZNSt3__114__split_bufferIdRNS_9allocatorIdEEED1Ev, symObjAddr: 0x3F14, symBinAddr: 0x100005A3C, symSize: 0x2C }
  - { offsetInCU: 0x10ECC, offset: 0x10ECC, size: 0x8, addend: 0x0, symName: __ZNSt3__117__compressed_pairIPdNS_9allocatorIdEEE5firstB8ue170006Ev, symObjAddr: 0x3F40, symBinAddr: 0x100005A68, symSize: 0x24 }
  - { offsetInCU: 0x10EF2, offset: 0x10EF2, size: 0x8, addend: 0x0, symName: __ZNSt3__122__compressed_pair_elemIPdLi0ELb0EE5__getB8ue170006Ev, symObjAddr: 0x3F64, symBinAddr: 0x100005A8C, symSize: 0x14 }
  - { offsetInCU: 0x10F31, offset: 0x10F31, size: 0x8, addend: 0x0, symName: __ZNSt3__16vectorIdNS_9allocatorIdEEE21_ConstructTransactionC1B8ue170006ERS3_m, symObjAddr: 0x3F78, symBinAddr: 0x100005AA0, symSize: 0x3C }
  - { offsetInCU: 0x10F79, offset: 0x10F79, size: 0x8, addend: 0x0, symName: __ZNSt3__116allocator_traitsINS_9allocatorIdEEE9constructB8ue170006IdJEvvEEvRS2_PT_DpOT0_, symObjAddr: 0x3FB4, symBinAddr: 0x100005ADC, symSize: 0x28 }
  - { offsetInCU: 0x10FB8, offset: 0x10FB8, size: 0x8, addend: 0x0, symName: __ZNSt3__16vectorIdNS_9allocatorIdEEE21_ConstructTransactionD1B8ue170006Ev, symObjAddr: 0x3FF0, symBinAddr: 0x100005B18, symSize: 0x2C }
  - { offsetInCU: 0x10FE2, offset: 0x10FE2, size: 0x8, addend: 0x0, symName: __ZNSt3__16vectorIdNS_9allocatorIdEEE21_ConstructTransactionC2B8ue170006ERS3_m, symObjAddr: 0x401C, symBinAddr: 0x100005B44, symSize: 0x44 }
  - { offsetInCU: 0x1102A, offset: 0x1102A, size: 0x8, addend: 0x0, symName: __ZNSt3__16vectorIdNS_9allocatorIdEEE21_ConstructTransactionD2B8ue170006Ev, symObjAddr: 0x4084, symBinAddr: 0x100005BAC, symSize: 0x20 }
  - { offsetInCU: 0x11054, offset: 0x11054, size: 0x8, addend: 0x0, symName: __ZNSt3__117__compressed_pairIPdNS_9allocatorIdEEE6secondB8ue170006Ev, symObjAddr: 0x40A4, symBinAddr: 0x100005BCC, symSize: 0x24 }
  - { offsetInCU: 0x1107A, offset: 0x1107A, size: 0x8, addend: 0x0, symName: __ZNSt3__122__compressed_pair_elemINS_9allocatorIdEELi1ELb1EE5__getB8ue170006Ev, symObjAddr: 0x40C8, symBinAddr: 0x100005BF0, symSize: 0x14 }
  - { offsetInCU: 0x110A0, offset: 0x110A0, size: 0x8, addend: 0x0, symName: __ZNKSt3__16vectorIdNS_9allocatorIdEEE8max_sizeEv, symObjAddr: 0x40DC, symBinAddr: 0x100005C04, symSize: 0x60 }
  - { offsetInCU: 0x110C8, offset: 0x110C8, size: 0x8, addend: 0x0, symName: __ZNKSt3__16vectorIdNS_9allocatorIdEEE20__throw_length_errorB8ue170006Ev, symObjAddr: 0x413C, symBinAddr: 0x100005C64, symSize: 0x1C }
  - { offsetInCU: 0x110EE, offset: 0x110EE, size: 0x8, addend: 0x0, symName: __ZNKSt3__16vectorIdNS_9allocatorIdEEE8capacityB8ue170006Ev, symObjAddr: 0x4158, symBinAddr: 0x100005C80, symSize: 0x40 }
  - { offsetInCU: 0x1111E, offset: 0x1111E, size: 0x8, addend: 0x0, symName: __ZNSt3__116allocator_traitsINS_9allocatorIdEEE8max_sizeB8ue170006IS2_vvEEmRKS2_, symObjAddr: 0x41C4, symBinAddr: 0x100005CEC, symSize: 0x28 }
  - { offsetInCU: 0x11149, offset: 0x11149, size: 0x8, addend: 0x0, symName: __ZNKSt3__16vectorIdNS_9allocatorIdEEE7__allocB8ue170006Ev, symObjAddr: 0x41EC, symBinAddr: 0x100005D14, symSize: 0x28 }
  - { offsetInCU: 0x1116F, offset: 0x1116F, size: 0x8, addend: 0x0, symName: __ZNKSt3__117__compressed_pairIPdNS_9allocatorIdEEE6secondB8ue170006Ev, symObjAddr: 0x4214, symBinAddr: 0x100005D3C, symSize: 0x24 }
  - { offsetInCU: 0x11195, offset: 0x11195, size: 0x8, addend: 0x0, symName: __ZNKSt3__122__compressed_pair_elemINS_9allocatorIdEELi1ELb1EE5__getB8ue170006Ev, symObjAddr: 0x4238, symBinAddr: 0x100005D60, symSize: 0x14 }
  - { offsetInCU: 0x111BB, offset: 0x111BB, size: 0x8, addend: 0x0, symName: __ZNKSt3__16vectorIdNS_9allocatorIdEEE9__end_capB8ue170006Ev, symObjAddr: 0x424C, symBinAddr: 0x100005D74, symSize: 0x28 }
  - { offsetInCU: 0x111E1, offset: 0x111E1, size: 0x8, addend: 0x0, symName: __ZNKSt3__117__compressed_pairIPdNS_9allocatorIdEEE5firstB8ue170006Ev, symObjAddr: 0x4274, symBinAddr: 0x100005D9C, symSize: 0x24 }
  - { offsetInCU: 0x11207, offset: 0x11207, size: 0x8, addend: 0x0, symName: __ZNKSt3__122__compressed_pair_elemIPdLi0ELb0EE5__getB8ue170006Ev, symObjAddr: 0x4298, symBinAddr: 0x100005DC0, symSize: 0x14 }
  - { offsetInCU: 0x1122D, offset: 0x1122D, size: 0x8, addend: 0x0, symName: __ZNSt3__114__split_bufferIdRNS_9allocatorIdEEEC2EmmS3_, symObjAddr: 0x4300, symBinAddr: 0x100005E28, symSize: 0xD4 }
  - { offsetInCU: 0x112A0, offset: 0x112A0, size: 0x8, addend: 0x0, symName: __ZNSt3__117__compressed_pairIPdRNS_9allocatorIdEEEC1B8ue170006IDnS4_EEOT_OT0_, symObjAddr: 0x43D4, symBinAddr: 0x100005EFC, symSize: 0x3C }
  - { offsetInCU: 0x112F8, offset: 0x112F8, size: 0x8, addend: 0x0, symName: __ZNSt3__114__split_bufferIdRNS_9allocatorIdEEE7__allocB8ue170006Ev, symObjAddr: 0x4450, symBinAddr: 0x100005F78, symSize: 0x28 }
  - { offsetInCU: 0x1131E, offset: 0x1131E, size: 0x8, addend: 0x0, symName: __ZNSt3__114__split_bufferIdRNS_9allocatorIdEEE9__end_capB8ue170006Ev, symObjAddr: 0x4478, symBinAddr: 0x100005FA0, symSize: 0x28 }
  - { offsetInCU: 0x11344, offset: 0x11344, size: 0x8, addend: 0x0, symName: __ZNSt3__117__compressed_pairIPdRNS_9allocatorIdEEEC2B8ue170006IDnS4_EEOT_OT0_, symObjAddr: 0x44A0, symBinAddr: 0x100005FC8, symSize: 0x48 }
  - { offsetInCU: 0x1139C, offset: 0x1139C, size: 0x8, addend: 0x0, symName: __ZNSt3__122__compressed_pair_elemIRNS_9allocatorIdEELi1ELb0EEC2B8ue170006IS3_vEEOT_, symObjAddr: 0x44E8, symBinAddr: 0x100006010, symSize: 0x20 }
  - { offsetInCU: 0x113DE, offset: 0x113DE, size: 0x8, addend: 0x0, symName: __ZNSt3__19allocatorIdE8allocateB8ue170006Em, symObjAddr: 0x4508, symBinAddr: 0x100006030, symSize: 0x58 }
  - { offsetInCU: 0x11412, offset: 0x11412, size: 0x8, addend: 0x0, symName: __ZNSt3__117__compressed_pairIPdRNS_9allocatorIdEEE6secondB8ue170006Ev, symObjAddr: 0x4560, symBinAddr: 0x100006088, symSize: 0x28 }
  - { offsetInCU: 0x11438, offset: 0x11438, size: 0x8, addend: 0x0, symName: __ZNSt3__122__compressed_pair_elemIRNS_9allocatorIdEELi1ELb0EE5__getB8ue170006Ev, symObjAddr: 0x4588, symBinAddr: 0x1000060B0, symSize: 0x18 }
  - { offsetInCU: 0x1145E, offset: 0x1145E, size: 0x8, addend: 0x0, symName: __ZNSt3__117__compressed_pairIPdRNS_9allocatorIdEEE5firstB8ue170006Ev, symObjAddr: 0x45A0, symBinAddr: 0x1000060C8, symSize: 0x24 }
  - { offsetInCU: 0x1148E, offset: 0x1148E, size: 0x8, addend: 0x0, symName: __ZNSt3__114__split_bufferIdRNS_9allocatorIdEEE21_ConstructTransactionC1B8ue170006EPPdm, symObjAddr: 0x45C4, symBinAddr: 0x1000060EC, symSize: 0x3C }
  - { offsetInCU: 0x114D4, offset: 0x114D4, size: 0x8, addend: 0x0, symName: __ZNSt3__114__split_bufferIdRNS_9allocatorIdEEE21_ConstructTransactionD1B8ue170006Ev, symObjAddr: 0x4600, symBinAddr: 0x100006128, symSize: 0x2C }
  - { offsetInCU: 0x114FE, offset: 0x114FE, size: 0x8, addend: 0x0, symName: __ZNSt3__114__split_bufferIdRNS_9allocatorIdEEE21_ConstructTransactionC2B8ue170006EPPdm, symObjAddr: 0x462C, symBinAddr: 0x100006154, symSize: 0x44 }
  - { offsetInCU: 0x11544, offset: 0x11544, size: 0x8, addend: 0x0, symName: __ZNSt3__114__split_bufferIdRNS_9allocatorIdEEE21_ConstructTransactionD2B8ue170006Ev, symObjAddr: 0x4670, symBinAddr: 0x100006198, symSize: 0x20 }
  - { offsetInCU: 0x1156E, offset: 0x1156E, size: 0x8, addend: 0x0, symName: __ZNKSt3__16vectorIdNS_9allocatorIdEEE17__annotate_deleteB8ue170006Ev, symObjAddr: 0x4690, symBinAddr: 0x1000061B8, symSize: 0xB8 }
  - { offsetInCU: 0x11594, offset: 0x11594, size: 0x8, addend: 0x0, symName: __ZNSt3__116reverse_iteratorIPdEC1B8ue170006ES1_, symObjAddr: 0x47C0, symBinAddr: 0x1000062E8, symSize: 0x34 }
  - { offsetInCU: 0x115CC, offset: 0x115CC, size: 0x8, addend: 0x0, symName: __ZNKSt3__116reverse_iteratorIPdE4baseB8ue170006Ev, symObjAddr: 0x47F4, symBinAddr: 0x10000631C, symSize: 0x18 }
  - { offsetInCU: 0x115F2, offset: 0x115F2, size: 0x8, addend: 0x0, symName: __ZNKSt3__16vectorIdNS_9allocatorIdEEE14__annotate_newB8ue170006Em, symObjAddr: 0x4848, symBinAddr: 0x100006370, symSize: 0xAC }
  - { offsetInCU: 0x11627, offset: 0x11627, size: 0x8, addend: 0x0, symName: __ZNKSt3__16vectorIdNS_9allocatorIdEEE31__annotate_contiguous_containerB8ue170006EPKvS5_S5_S5_, symObjAddr: 0x48F4, symBinAddr: 0x10000641C, symSize: 0x20 }
  - { offsetInCU: 0x11679, offset: 0x11679, size: 0x8, addend: 0x0, symName: __ZNKSt3__16vectorIdNS_9allocatorIdEEE4dataB8ue170006Ev, symObjAddr: 0x4914, symBinAddr: 0x10000643C, symSize: 0x28 }
  - { offsetInCU: 0x116C3, offset: 0x116C3, size: 0x8, addend: 0x0, symName: __ZNKSt3__111__move_loopINS_17_ClassicAlgPolicyEEclB8ue170006INS_16reverse_iteratorIPdEES6_S6_EENS_4pairIT_T1_EES8_T0_S9_, symObjAddr: 0x4BF4, symBinAddr: 0x10000671C, symSize: 0xA0 }
  - { offsetInCU: 0x1172E, offset: 0x1172E, size: 0x8, addend: 0x0, symName: __ZNSt3__119__unwrap_range_implINS_16reverse_iteratorIPdEES3_E8__unwrapB8ue170006ES3_S3_, symObjAddr: 0x4DE0, symBinAddr: 0x100006908, symSize: 0x84 }
  - { offsetInCU: 0x11765, offset: 0x11765, size: 0x8, addend: 0x0, symName: __ZNSt3__14pairINS_16reverse_iteratorIPdEES3_EC1B8ue170006IS3_S3_LPv0EEEOT_OT0_, symObjAddr: 0x4E64, symBinAddr: 0x10000698C, symSize: 0x3C }
  - { offsetInCU: 0x117C3, offset: 0x117C3, size: 0x8, addend: 0x0, symName: __ZNSt3__14pairINS_16reverse_iteratorIPdEES3_EC2B8ue170006IS3_S3_LPv0EEEOT_OT0_, symObjAddr: 0x4EA0, symBinAddr: 0x1000069C8, symSize: 0x34 }
  - { offsetInCU: 0x11827, offset: 0x11827, size: 0x8, addend: 0x0, symName: __ZNSt3__18_IterOpsINS_17_ClassicAlgPolicyEE11__iter_moveB8ue170006IRNS_16reverse_iteratorIPdEEEENS_9enable_ifIXsr12is_referenceIDTdeclsr3stdE7declvalIRT_EEEEE5valueEDTclsr3stdE4movedeclsr3stdE7declvalISA_EEEEE4typeEOS9_, symObjAddr: 0x4F1C, symBinAddr: 0x100006A44, symSize: 0x28 }
  - { offsetInCU: 0x11853, offset: 0x11853, size: 0x8, addend: 0x0, symName: __ZNKSt3__116reverse_iteratorIPdEdeB8ue170006Ev, symObjAddr: 0x4F44, symBinAddr: 0x100006A6C, symSize: 0x28 }
  - { offsetInCU: 0x11887, offset: 0x11887, size: 0x8, addend: 0x0, symName: __ZNSt3__116reverse_iteratorIPdEppB8ue170006Ev, symObjAddr: 0x4F6C, symBinAddr: 0x100006A94, symSize: 0x20 }
  - { offsetInCU: 0x118AD, offset: 0x118AD, size: 0x8, addend: 0x0, symName: __ZNSt3__18_IterOpsINS_17_ClassicAlgPolicyEE25__validate_iter_referenceB8ue170006IRNS_16reverse_iteratorIPdEEEEvv, symObjAddr: 0x4F8C, symBinAddr: 0x100006AB4, symSize: 0x4 }
  - { offsetInCU: 0x118CB, offset: 0x118CB, size: 0x8, addend: 0x0, symName: __ZNSt3__118__unwrap_iter_implINS_16reverse_iteratorIPdEELb0EE8__unwrapB8ue170006ES3_, symObjAddr: 0x4F90, symBinAddr: 0x100006AB8, symSize: 0x24 }
  - { offsetInCU: 0x118EE, offset: 0x118EE, size: 0x8, addend: 0x0, symName: __ZNSt3__119__unwrap_range_implINS_16reverse_iteratorIPdEES3_E8__rewrapB8ue170006ES3_S3_, symObjAddr: 0x4FB4, symBinAddr: 0x100006ADC, symSize: 0x5C }
  - { offsetInCU: 0x1191F, offset: 0x1191F, size: 0x8, addend: 0x0, symName: __ZNSt3__118__unwrap_iter_implINS_16reverse_iteratorIPdEELb0EE8__rewrapB8ue170006ES3_S3_, symObjAddr: 0x5010, symBinAddr: 0x100006B38, symSize: 0x2C }
  - { offsetInCU: 0x1194C, offset: 0x1194C, size: 0x8, addend: 0x0, symName: __ZNSt3__116reverse_iteratorIPdEC2B8ue170006ES1_, symObjAddr: 0x503C, symBinAddr: 0x100006B64, symSize: 0x28 }
  - { offsetInCU: 0x11984, offset: 0x11984, size: 0x8, addend: 0x0, symName: __ZNSt3__114__split_bufferIdRNS_9allocatorIdEEED2Ev, symObjAddr: 0x5064, symBinAddr: 0x100006B8C, symSize: 0x8C }
  - { offsetInCU: 0x119B0, offset: 0x119B0, size: 0x8, addend: 0x0, symName: __ZNSt3__114__split_bufferIdRNS_9allocatorIdEEE5clearB8ue170006Ev, symObjAddr: 0x50F0, symBinAddr: 0x100006C18, symSize: 0x28 }
  - { offsetInCU: 0x119D6, offset: 0x119D6, size: 0x8, addend: 0x0, symName: __ZNSt3__116allocator_traitsINS_9allocatorIdEEE10deallocateB8ue170006ERS2_Pdm, symObjAddr: 0x5118, symBinAddr: 0x100006C40, symSize: 0x34 }
  - { offsetInCU: 0x11A18, offset: 0x11A18, size: 0x8, addend: 0x0, symName: __ZNKSt3__114__split_bufferIdRNS_9allocatorIdEEE8capacityB8ue170006Ev, symObjAddr: 0x514C, symBinAddr: 0x100006C74, symSize: 0x40 }
  - { offsetInCU: 0x11A3E, offset: 0x11A3E, size: 0x8, addend: 0x0, symName: __ZNSt3__114__split_bufferIdRNS_9allocatorIdEEE17__destruct_at_endB8ue170006EPd, symObjAddr: 0x518C, symBinAddr: 0x100006CB4, symSize: 0x2C }
  - { offsetInCU: 0x11A72, offset: 0x11A72, size: 0x8, addend: 0x0, symName: __ZNSt3__114__split_bufferIdRNS_9allocatorIdEEE17__destruct_at_endB8ue170006EPdNS_17integral_constantIbLb0EEE, symObjAddr: 0x51B8, symBinAddr: 0x100006CE0, symSize: 0x80 }
  - { offsetInCU: 0x11AB2, offset: 0x11AB2, size: 0x8, addend: 0x0, symName: __ZNSt3__116allocator_traitsINS_9allocatorIdEEE7destroyB8ue170006IdvvEEvRS2_PT_, symObjAddr: 0x5238, symBinAddr: 0x100006D60, symSize: 0x28 }
  - { offsetInCU: 0x11AEC, offset: 0x11AEC, size: 0x8, addend: 0x0, symName: __ZNSt3__19allocatorIdE10deallocateB8ue170006EPdm, symObjAddr: 0x5294, symBinAddr: 0x100006DBC, symSize: 0x40 }
  - { offsetInCU: 0x11B2E, offset: 0x11B2E, size: 0x8, addend: 0x0, symName: __ZNKSt3__114__split_bufferIdRNS_9allocatorIdEEE9__end_capB8ue170006Ev, symObjAddr: 0x52D4, symBinAddr: 0x100006DFC, symSize: 0x28 }
  - { offsetInCU: 0x11B54, offset: 0x11B54, size: 0x8, addend: 0x0, symName: __ZNKSt3__117__compressed_pairIPdRNS_9allocatorIdEEE5firstB8ue170006Ev, symObjAddr: 0x52FC, symBinAddr: 0x100006E24, symSize: 0x24 }
  - { offsetInCU: 0x11B7A, offset: 0x11B7A, size: 0x8, addend: 0x0, symName: __ZNSt3__16vectorIdNS_9allocatorIdEEE22__base_destruct_at_endB8ue170006EPd, symObjAddr: 0x5320, symBinAddr: 0x100006E48, symSize: 0x8C }
  - { offsetInCU: 0x11BBE, offset: 0x11BBE, size: 0x8, addend: 0x0, symName: __ZNKSt3__16vectorIdNS_9allocatorIdEEE17__annotate_shrinkB8ue170006Em, symObjAddr: 0x53AC, symBinAddr: 0x100006ED4, symSize: 0xB4 }
  - { offsetInCU: 0x11BF3, offset: 0x11BF3, size: 0x8, addend: 0x0, symName: __ZNSt3__16vectorINS0_IdNS_9allocatorIdEEEENS1_IS3_EEED2B8ue170006Ev, symObjAddr: 0x5460, symBinAddr: 0x100006F88, symSize: 0x40 }
  - { offsetInCU: 0x11C1D, offset: 0x11C1D, size: 0x8, addend: 0x0, symName: __ZNSt3__16vectorIdNS_9allocatorIdEEEC2B8ue170006ESt16initializer_listIdE, symObjAddr: 0x54A0, symBinAddr: 0x100006FC8, symSize: 0x120 }
  - { offsetInCU: 0x11C6D, offset: 0x11C6D, size: 0x8, addend: 0x0, symName: __ZNSt3__16vectorIdNS_9allocatorIdEEE16__destroy_vectorC1B8ue170006ERS3_, symObjAddr: 0x5600, symBinAddr: 0x100007128, symSize: 0x34 }
  - { offsetInCU: 0x11CA6, offset: 0x11CA6, size: 0x8, addend: 0x0, symName: __ZNKSt16initializer_listIdE4sizeB8ue170006Ev, symObjAddr: 0x5634, symBinAddr: 0x10000715C, symSize: 0x18 }
  - { offsetInCU: 0x11CCC, offset: 0x11CCC, size: 0x8, addend: 0x0, symName: __ZNSt3__16vectorIdNS_9allocatorIdEEE11__vallocateB8ue170006Em, symObjAddr: 0x564C, symBinAddr: 0x100007174, symSize: 0xAC }
  - { offsetInCU: 0x11D10, offset: 0x11D10, size: 0x8, addend: 0x0, symName: __ZNSt3__16vectorIdNS_9allocatorIdEEE18__construct_at_endIPKdS6_EEvT_T0_m, symObjAddr: 0x56F8, symBinAddr: 0x100007220, symSize: 0x8C }
  - { offsetInCU: 0x11D86, offset: 0x11D86, size: 0x8, addend: 0x0, symName: __ZNKSt16initializer_listIdE5beginB8ue170006Ev, symObjAddr: 0x5784, symBinAddr: 0x1000072AC, symSize: 0x18 }
  - { offsetInCU: 0x11DAC, offset: 0x11DAC, size: 0x8, addend: 0x0, symName: __ZNKSt16initializer_listIdE3endB8ue170006Ev, symObjAddr: 0x579C, symBinAddr: 0x1000072C4, symSize: 0x20 }
  - { offsetInCU: 0x11DD2, offset: 0x11DD2, size: 0x8, addend: 0x0, symName: __ZNSt3__128__exception_guard_exceptionsINS_6vectorIdNS_9allocatorIdEEE16__destroy_vectorEE10__completeB8ue170006Ev, symObjAddr: 0x57BC, symBinAddr: 0x1000072E4, symSize: 0x1C }
  - { offsetInCU: 0x11DF8, offset: 0x11DF8, size: 0x8, addend: 0x0, symName: __ZNSt3__128__exception_guard_exceptionsINS_6vectorIdNS_9allocatorIdEEE16__destroy_vectorEED1B8ue170006Ev, symObjAddr: 0x57D8, symBinAddr: 0x100007300, symSize: 0x2C }
  - { offsetInCU: 0x11E22, offset: 0x11E22, size: 0x8, addend: 0x0, symName: __ZNSt3__128__exception_guard_exceptionsINS_6vectorIdNS_9allocatorIdEEE16__destroy_vectorEEC1B8ue170006ES5_, symObjAddr: 0x5804, symBinAddr: 0x10000732C, symSize: 0x34 }
  - { offsetInCU: 0x11E5A, offset: 0x11E5A, size: 0x8, addend: 0x0, symName: __ZNSt3__128__exception_guard_exceptionsINS_6vectorIdNS_9allocatorIdEEE16__destroy_vectorEEC2B8ue170006ES5_, symObjAddr: 0x5838, symBinAddr: 0x100007360, symSize: 0x24 }
  - { offsetInCU: 0x11E92, offset: 0x11E92, size: 0x8, addend: 0x0, symName: __ZNSt3__16vectorIdNS_9allocatorIdEEE16__destroy_vectorC2B8ue170006ERS3_, symObjAddr: 0x585C, symBinAddr: 0x100007384, symSize: 0x20 }
  - { offsetInCU: 0x11EE5, offset: 0x11EE5, size: 0x8, addend: 0x0, symName: __ZNSt3__119__unwrap_range_implIPKdS2_E8__unwrapB8ue170006ES2_S2_, symObjAddr: 0x59D0, symBinAddr: 0x1000074F8, symSize: 0x58 }
  - { offsetInCU: 0x11F1C, offset: 0x11F1C, size: 0x8, addend: 0x0, symName: __ZNSt3__14pairIPKdS2_EC1B8ue170006IS2_S2_LPv0EEEOT_OT0_, symObjAddr: 0x5A4C, symBinAddr: 0x100007574, symSize: 0x3C }
  - { offsetInCU: 0x11F7A, offset: 0x11F7A, size: 0x8, addend: 0x0, symName: __ZNSt3__118__unwrap_iter_implIPKdLb1EE8__unwrapB8ue170006ES2_, symObjAddr: 0x5A88, symBinAddr: 0x1000075B0, symSize: 0x24 }
  - { offsetInCU: 0x11F9D, offset: 0x11F9D, size: 0x8, addend: 0x0, symName: __ZNSt3__14pairIPKdS2_EC2B8ue170006IS2_S2_LPv0EEEOT_OT0_, symObjAddr: 0x5AC0, symBinAddr: 0x1000075E8, symSize: 0x34 }
  - { offsetInCU: 0x1201F, offset: 0x1201F, size: 0x8, addend: 0x0, symName: __ZNKSt3__114__copy_trivialclB8ue170006IKddLi0EEENS_4pairIPT_PT0_EES5_S5_S7_, symObjAddr: 0x5C70, symBinAddr: 0x100007798, symSize: 0x48 }
  - { offsetInCU: 0x12092, offset: 0x12092, size: 0x8, addend: 0x0, symName: __ZNSt3__14pairIPKdPdEC1B8ue170006IRS2_S3_LPv0EEEOT_OT0_, symObjAddr: 0x5E38, symBinAddr: 0x100007960, symSize: 0x3C }
  - { offsetInCU: 0x120F0, offset: 0x120F0, size: 0x8, addend: 0x0, symName: __ZNSt3__14pairIPKdPdEC2B8ue170006IRS2_S3_LPv0EEEOT_OT0_, symObjAddr: 0x5E74, symBinAddr: 0x10000799C, symSize: 0x34 }
  - { offsetInCU: 0x1214E, offset: 0x1214E, size: 0x8, addend: 0x0, symName: __ZNSt3__14pairIPKdPdEC1B8ue170006IS2_S3_LPv0EEEOT_OT0_, symObjAddr: 0x5EA8, symBinAddr: 0x1000079D0, symSize: 0x3C }
  - { offsetInCU: 0x121AC, offset: 0x121AC, size: 0x8, addend: 0x0, symName: __ZNSt3__14pairIPKdPdEC2B8ue170006IS2_S3_LPv0EEEOT_OT0_, symObjAddr: 0x5EE4, symBinAddr: 0x100007A0C, symSize: 0x34 }
  - { offsetInCU: 0x1220A, offset: 0x1220A, size: 0x8, addend: 0x0, symName: __ZNSt3__119__unwrap_range_implIPKdS2_E8__rewrapB8ue170006ES2_S2_, symObjAddr: 0x5F18, symBinAddr: 0x100007A40, symSize: 0x2C }
  - { offsetInCU: 0x1223B, offset: 0x1223B, size: 0x8, addend: 0x0, symName: __ZNSt3__118__unwrap_iter_implIPKdLb1EE8__rewrapB8ue170006ES2_S2_, symObjAddr: 0x5F80, symBinAddr: 0x100007AA8, symSize: 0x50 }
  - { offsetInCU: 0x1226C, offset: 0x1226C, size: 0x8, addend: 0x0, symName: __ZNSt3__118__unwrap_iter_implIPdLb1EE8__unwrapB8ue170006ES1_, symObjAddr: 0x5FD0, symBinAddr: 0x100007AF8, symSize: 0x24 }
  - { offsetInCU: 0x1228F, offset: 0x1228F, size: 0x8, addend: 0x0, symName: __ZNSt3__118__unwrap_iter_implIPdLb1EE8__rewrapB8ue170006ES1_S1_, symObjAddr: 0x5FF4, symBinAddr: 0x100007B1C, symSize: 0x50 }
  - { offsetInCU: 0x122C0, offset: 0x122C0, size: 0x8, addend: 0x0, symName: __ZNSt3__128__exception_guard_exceptionsINS_6vectorIdNS_9allocatorIdEEE16__destroy_vectorEED2B8ue170006Ev, symObjAddr: 0x6044, symBinAddr: 0x100007B6C, symSize: 0x50 }
  - { offsetInCU: 0x122EA, offset: 0x122EA, size: 0x8, addend: 0x0, symName: __ZNSt3__16vectorIdNS_9allocatorIdEEE16__destroy_vectorclB8ue170006Ev, symObjAddr: 0x6094, symBinAddr: 0x100007BBC, symSize: 0x90 }
  - { offsetInCU: 0x12310, offset: 0x12310, size: 0x8, addend: 0x0, symName: __ZNSt3__16vectorIdNS_9allocatorIdEEE7__clearB8ue170006Ev, symObjAddr: 0x6124, symBinAddr: 0x100007C4C, symSize: 0x28 }
  - { offsetInCU: 0x12336, offset: 0x12336, size: 0x8, addend: 0x0, symName: __ZNSt3__16vectorIdNS_9allocatorIdEEED2B8ue170006Ev, symObjAddr: 0x614C, symBinAddr: 0x100007C74, symSize: 0x40 }
  - { offsetInCU: 0x12360, offset: 0x12360, size: 0x8, addend: 0x0, symName: __ZNSt3__16vectorINS0_IdNS_9allocatorIdEEEENS1_IS3_EEEC2B8ue170006ESt16initializer_listIS3_E, symObjAddr: 0x618C, symBinAddr: 0x100007CB4, symSize: 0x120 }
  - { offsetInCU: 0x123B0, offset: 0x123B0, size: 0x8, addend: 0x0, symName: __ZNKSt16initializer_listINSt3__16vectorIdNS0_9allocatorIdEEEEE4sizeB8ue170006Ev, symObjAddr: 0x62AC, symBinAddr: 0x100007DD4, symSize: 0x18 }
  - { offsetInCU: 0x123D6, offset: 0x123D6, size: 0x8, addend: 0x0, symName: __ZNSt3__16vectorINS0_IdNS_9allocatorIdEEEENS1_IS3_EEE18__construct_at_endIPKS3_S8_EEvT_T0_m, symObjAddr: 0x62C4, symBinAddr: 0x100007DEC, symSize: 0x8C }
  - { offsetInCU: 0x1244C, offset: 0x1244C, size: 0x8, addend: 0x0, symName: __ZNKSt16initializer_listINSt3__16vectorIdNS0_9allocatorIdEEEEE5beginB8ue170006Ev, symObjAddr: 0x6350, symBinAddr: 0x100007E78, symSize: 0x18 }
  - { offsetInCU: 0x12472, offset: 0x12472, size: 0x8, addend: 0x0, symName: __ZNKSt16initializer_listINSt3__16vectorIdNS0_9allocatorIdEEEEE3endB8ue170006Ev, symObjAddr: 0x6368, symBinAddr: 0x100007E90, symSize: 0x28 }
  - { offsetInCU: 0x124B2, offset: 0x124B2, size: 0x8, addend: 0x0, symName: __ZNSt3__119__unwrap_range_implIPKNS_6vectorIdNS_9allocatorIdEEEES6_E8__unwrapB8ue170006ES6_S6_, symObjAddr: 0x65A0, symBinAddr: 0x1000080C8, symSize: 0x58 }
  - { offsetInCU: 0x124E9, offset: 0x124E9, size: 0x8, addend: 0x0, symName: __ZNSt3__14pairIPKNS_6vectorIdNS_9allocatorIdEEEES6_EC1B8ue170006IS6_S6_LPv0EEEOT_OT0_, symObjAddr: 0x661C, symBinAddr: 0x100008144, symSize: 0x3C }
  - { offsetInCU: 0x12547, offset: 0x12547, size: 0x8, addend: 0x0, symName: __ZNSt3__118__unwrap_iter_implIPKNS_6vectorIdNS_9allocatorIdEEEELb1EE8__unwrapB8ue170006ES6_, symObjAddr: 0x6658, symBinAddr: 0x100008180, symSize: 0x24 }
  - { offsetInCU: 0x1256A, offset: 0x1256A, size: 0x8, addend: 0x0, symName: __ZNSt3__14pairIPKNS_6vectorIdNS_9allocatorIdEEEES6_EC2B8ue170006IS6_S6_LPv0EEEOT_OT0_, symObjAddr: 0x6690, symBinAddr: 0x1000081B8, symSize: 0x34 }
  - { offsetInCU: 0x125C8, offset: 0x125C8, size: 0x8, addend: 0x0, symName: __ZNSt3__129_AllocatorDestroyRangeReverseINS_9allocatorINS_6vectorIdNS1_IdEEEEEEPS4_EC1B8ue170006ERS5_RS6_S9_, symObjAddr: 0x6710, symBinAddr: 0x100008238, symSize: 0x44 }
  - { offsetInCU: 0x1261F, offset: 0x1261F, size: 0x8, addend: 0x0, symName: __ZNSt3__116allocator_traitsINS_9allocatorINS_6vectorIdNS1_IdEEEEEEE9constructB8ue170006IS4_JRKS4_EvvEEvRS5_PT_DpOT0_, symObjAddr: 0x6754, symBinAddr: 0x10000827C, symSize: 0x30 }
  - { offsetInCU: 0x12673, offset: 0x12673, size: 0x8, addend: 0x0, symName: __ZNSt3__128__exception_guard_exceptionsINS_29_AllocatorDestroyRangeReverseINS_9allocatorINS_6vectorIdNS2_IdEEEEEEPS5_EEE10__completeB8ue170006Ev, symObjAddr: 0x6784, symBinAddr: 0x1000082AC, symSize: 0x1C }
  - { offsetInCU: 0x12699, offset: 0x12699, size: 0x8, addend: 0x0, symName: __ZNSt3__128__exception_guard_exceptionsINS_29_AllocatorDestroyRangeReverseINS_9allocatorINS_6vectorIdNS2_IdEEEEEEPS5_EEED1B8ue170006Ev, symObjAddr: 0x67A0, symBinAddr: 0x1000082C8, symSize: 0x2C }
  - { offsetInCU: 0x126C3, offset: 0x126C3, size: 0x8, addend: 0x0, symName: __ZNSt3__128__exception_guard_exceptionsINS_29_AllocatorDestroyRangeReverseINS_9allocatorINS_6vectorIdNS2_IdEEEEEEPS5_EEEC1B8ue170006ES8_, symObjAddr: 0x67CC, symBinAddr: 0x1000082F4, symSize: 0x34 }
  - { offsetInCU: 0x126FC, offset: 0x126FC, size: 0x8, addend: 0x0, symName: __ZNSt3__128__exception_guard_exceptionsINS_29_AllocatorDestroyRangeReverseINS_9allocatorINS_6vectorIdNS2_IdEEEEEEPS5_EEEC2B8ue170006ES8_, symObjAddr: 0x6800, symBinAddr: 0x100008328, symSize: 0x30 }
  - { offsetInCU: 0x12735, offset: 0x12735, size: 0x8, addend: 0x0, symName: __ZNSt3__129_AllocatorDestroyRangeReverseINS_9allocatorINS_6vectorIdNS1_IdEEEEEEPS4_EC2B8ue170006ERS5_RS6_S9_, symObjAddr: 0x6830, symBinAddr: 0x100008358, symSize: 0x38 }
  - { offsetInCU: 0x1278C, offset: 0x1278C, size: 0x8, addend: 0x0, symName: __ZNSt3__16vectorIdNS_9allocatorIdEEEC1ERKS3_, symObjAddr: 0x68A4, symBinAddr: 0x1000083CC, symSize: 0x34 }
  - { offsetInCU: 0x127C7, offset: 0x127C7, size: 0x8, addend: 0x0, symName: __ZNSt3__16vectorIdNS_9allocatorIdEEEC2ERKS3_, symObjAddr: 0x68D8, symBinAddr: 0x100008400, symSize: 0x94 }
  - { offsetInCU: 0x12802, offset: 0x12802, size: 0x8, addend: 0x0, symName: __ZNSt3__116allocator_traitsINS_9allocatorIdEEE37select_on_container_copy_constructionB8ue170006IS2_vvEES2_RKS2_, symObjAddr: 0x696C, symBinAddr: 0x100008494, symSize: 0x10 }
  - { offsetInCU: 0x12837, offset: 0x12837, size: 0x8, addend: 0x0, symName: __ZNSt3__117__compressed_pairIPdNS_9allocatorIdEEEC1B8ue170006IDnS3_EEOT_OT0_, symObjAddr: 0x697C, symBinAddr: 0x1000084A4, symSize: 0x3C }
  - { offsetInCU: 0x1288F, offset: 0x1288F, size: 0x8, addend: 0x0, symName: __ZNSt3__16vectorIdNS_9allocatorIdEEE16__init_with_sizeB8ue170006IPdS5_EEvT_T0_m, symObjAddr: 0x69B8, symBinAddr: 0x1000084E0, symSize: 0xB8 }
  - { offsetInCU: 0x12903, offset: 0x12903, size: 0x8, addend: 0x0, symName: __ZNSt3__117__compressed_pairIPdNS_9allocatorIdEEEC2B8ue170006IDnS3_EEOT_OT0_, symObjAddr: 0x6A70, symBinAddr: 0x100008598, symSize: 0x44 }
  - { offsetInCU: 0x1295B, offset: 0x1295B, size: 0x8, addend: 0x0, symName: __ZNSt3__122__compressed_pair_elemINS_9allocatorIdEELi1ELb1EEC2B8ue170006IS2_vEEOT_, symObjAddr: 0x6AB4, symBinAddr: 0x1000085DC, symSize: 0x18 }
  - { offsetInCU: 0x1299D, offset: 0x1299D, size: 0x8, addend: 0x0, symName: __ZNSt3__16vectorIdNS_9allocatorIdEEE18__construct_at_endIPdS5_EEvT_T0_m, symObjAddr: 0x6ACC, symBinAddr: 0x1000085F4, symSize: 0x8C }
  - { offsetInCU: 0x12A2D, offset: 0x12A2D, size: 0x8, addend: 0x0, symName: __ZNSt3__119__unwrap_range_implIPdS1_E8__unwrapB8ue170006ES1_S1_, symObjAddr: 0x6C4C, symBinAddr: 0x100008774, symSize: 0x58 }
  - { offsetInCU: 0x12A5E, offset: 0x12A5E, size: 0x8, addend: 0x0, symName: __ZNSt3__14pairIPdS1_EC1B8ue170006IS1_S1_LPv0EEEOT_OT0_, symObjAddr: 0x6CA4, symBinAddr: 0x1000087CC, symSize: 0x3C }
  - { offsetInCU: 0x12ABC, offset: 0x12ABC, size: 0x8, addend: 0x0, symName: __ZNSt3__14pairIPdS1_EC2B8ue170006IS1_S1_LPv0EEEOT_OT0_, symObjAddr: 0x6CE0, symBinAddr: 0x100008808, symSize: 0x34 }
  - { offsetInCU: 0x12B1A, offset: 0x12B1A, size: 0x8, addend: 0x0, symName: __ZNKSt3__114__copy_trivialclB8ue170006IddLi0EEENS_4pairIPT_PT0_EES4_S4_S6_, symObjAddr: 0x6E90, symBinAddr: 0x1000089B8, symSize: 0x48 }
  - { offsetInCU: 0x12B82, offset: 0x12B82, size: 0x8, addend: 0x0, symName: __ZNSt3__14pairIPdS1_EC1B8ue170006IRS1_S1_LPv0EEEOT_OT0_, symObjAddr: 0x7058, symBinAddr: 0x100008B80, symSize: 0x3C }
  - { offsetInCU: 0x12BE0, offset: 0x12BE0, size: 0x8, addend: 0x0, symName: __ZNSt3__14pairIPdS1_EC2B8ue170006IRS1_S1_LPv0EEEOT_OT0_, symObjAddr: 0x7094, symBinAddr: 0x100008BBC, symSize: 0x34 }
  - { offsetInCU: 0x12C3E, offset: 0x12C3E, size: 0x8, addend: 0x0, symName: __ZNSt3__119__unwrap_range_implIPdS1_E8__rewrapB8ue170006ES1_S1_, symObjAddr: 0x70C8, symBinAddr: 0x100008BF0, symSize: 0x2C }
  - { offsetInCU: 0x12C6F, offset: 0x12C6F, size: 0x8, addend: 0x0, symName: __ZNSt3__128__exception_guard_exceptionsINS_29_AllocatorDestroyRangeReverseINS_9allocatorINS_6vectorIdNS2_IdEEEEEEPS5_EEED2B8ue170006Ev, symObjAddr: 0x70F4, symBinAddr: 0x100008C1C, symSize: 0x50 }
  - { offsetInCU: 0x12C99, offset: 0x12C99, size: 0x8, addend: 0x0, symName: __ZNKSt3__129_AllocatorDestroyRangeReverseINS_9allocatorINS_6vectorIdNS1_IdEEEEEEPS4_EclB8ue170006Ev, symObjAddr: 0x7144, symBinAddr: 0x100008C6C, symSize: 0x68 }
  - { offsetInCU: 0x12CBF, offset: 0x12CBF, size: 0x8, addend: 0x0, symName: __ZNSt3__116reverse_iteratorIPNS_6vectorIdNS_9allocatorIdEEEEEC1B8ue170006ES5_, symObjAddr: 0x721C, symBinAddr: 0x100008D44, symSize: 0x34 }
  - { offsetInCU: 0x12CF7, offset: 0x12CF7, size: 0x8, addend: 0x0, symName: __ZNSt3__116reverse_iteratorIPNS_6vectorIdNS_9allocatorIdEEEEEppB8ue170006Ev, symObjAddr: 0x72BC, symBinAddr: 0x100008DE4, symSize: 0x20 }
  - { offsetInCU: 0x12D1D, offset: 0x12D1D, size: 0x8, addend: 0x0, symName: __ZNKSt3__116reverse_iteratorIPNS_6vectorIdNS_9allocatorIdEEEEE4baseB8ue170006Ev, symObjAddr: 0x72DC, symBinAddr: 0x100008E04, symSize: 0x18 }
  - { offsetInCU: 0x12D48, offset: 0x12D48, size: 0x8, addend: 0x0, symName: __ZNSt3__119__to_address_helperINS_16reverse_iteratorIPNS_6vectorIdNS_9allocatorIdEEEEEEvE6__callB8ue170006ERKS7_, symObjAddr: 0x72F4, symBinAddr: 0x100008E1C, symSize: 0x38 }
  - { offsetInCU: 0x12D6B, offset: 0x12D6B, size: 0x8, addend: 0x0, symName: __ZNKSt3__116reverse_iteratorIPNS_6vectorIdNS_9allocatorIdEEEEEptB8ue170006Ev, symObjAddr: 0x732C, symBinAddr: 0x100008E54, symSize: 0x2C }
  - { offsetInCU: 0x12D91, offset: 0x12D91, size: 0x8, addend: 0x0, symName: __ZNSt3__116reverse_iteratorIPNS_6vectorIdNS_9allocatorIdEEEEEC2B8ue170006ES5_, symObjAddr: 0x7410, symBinAddr: 0x100008F38, symSize: 0x28 }
  - { offsetInCU: 0x12DC9, offset: 0x12DC9, size: 0x8, addend: 0x0, symName: __ZNSt3__118__unwrap_iter_implIPNS_6vectorIdNS_9allocatorIdEEEELb1EE8__unwrapB8ue170006ES5_, symObjAddr: 0x7438, symBinAddr: 0x100008F60, symSize: 0x24 }
  - { offsetInCU: 0x12DEC, offset: 0x12DEC, size: 0x8, addend: 0x0, symName: __ZNSt3__118__unwrap_iter_implIPNS_6vectorIdNS_9allocatorIdEEEELb1EE8__rewrapB8ue170006ES5_S5_, symObjAddr: 0x745C, symBinAddr: 0x100008F84, symSize: 0x58 }
  - { offsetInCU: 0x12E1D, offset: 0x12E1D, size: 0x8, addend: 0x0, symName: __ZNSt3__16vectorINS0_IdNS_9allocatorIdEEEENS1_IS3_EEEC2ERKS5_, symObjAddr: 0x74B4, symBinAddr: 0x100008FDC, symSize: 0x94 }
  - { offsetInCU: 0x12E58, offset: 0x12E58, size: 0x8, addend: 0x0, symName: __ZNSt3__116allocator_traitsINS_9allocatorINS_6vectorIdNS1_IdEEEEEEE37select_on_container_copy_constructionB8ue170006IS5_vvEES5_RKS5_, symObjAddr: 0x7548, symBinAddr: 0x100009070, symSize: 0x10 }
  - { offsetInCU: 0x12E8D, offset: 0x12E8D, size: 0x8, addend: 0x0, symName: __ZNSt3__117__compressed_pairIPNS_6vectorIdNS_9allocatorIdEEEENS2_IS4_EEEC1B8ue170006IDnS6_EEOT_OT0_, symObjAddr: 0x7558, symBinAddr: 0x100009080, symSize: 0x3C }
  - { offsetInCU: 0x12EE5, offset: 0x12EE5, size: 0x8, addend: 0x0, symName: __ZNSt3__16vectorINS0_IdNS_9allocatorIdEEEENS1_IS3_EEE16__init_with_sizeB8ue170006IPS3_S7_EEvT_T0_m, symObjAddr: 0x7594, symBinAddr: 0x1000090BC, symSize: 0xB8 }
  - { offsetInCU: 0x12F59, offset: 0x12F59, size: 0x8, addend: 0x0, symName: __ZNSt3__117__compressed_pairIPNS_6vectorIdNS_9allocatorIdEEEENS2_IS4_EEEC2B8ue170006IDnS6_EEOT_OT0_, symObjAddr: 0x764C, symBinAddr: 0x100009174, symSize: 0x44 }
  - { offsetInCU: 0x12FB1, offset: 0x12FB1, size: 0x8, addend: 0x0, symName: __ZNSt3__122__compressed_pair_elemINS_9allocatorINS_6vectorIdNS1_IdEEEEEELi1ELb1EEC2B8ue170006IS5_vEEOT_, symObjAddr: 0x7690, symBinAddr: 0x1000091B8, symSize: 0x18 }
  - { offsetInCU: 0x12FF3, offset: 0x12FF3, size: 0x8, addend: 0x0, symName: __ZNSt3__16vectorINS0_IdNS_9allocatorIdEEEENS1_IS3_EEE18__construct_at_endIPS3_S7_EEvT_T0_m, symObjAddr: 0x76A8, symBinAddr: 0x1000091D0, symSize: 0x8C }
  - { offsetInCU: 0x13083, offset: 0x13083, size: 0x8, addend: 0x0, symName: __ZNSt3__119__unwrap_range_implIPNS_6vectorIdNS_9allocatorIdEEEES5_E8__unwrapB8ue170006ES5_S5_, symObjAddr: 0x78E4, symBinAddr: 0x10000940C, symSize: 0x58 }
  - { offsetInCU: 0x130BA, offset: 0x130BA, size: 0x8, addend: 0x0, symName: __ZNSt3__14pairIPNS_6vectorIdNS_9allocatorIdEEEES5_EC1B8ue170006IS5_S5_LPv0EEEOT_OT0_, symObjAddr: 0x793C, symBinAddr: 0x100009464, symSize: 0x3C }
  - { offsetInCU: 0x13118, offset: 0x13118, size: 0x8, addend: 0x0, symName: __ZNSt3__14pairIPNS_6vectorIdNS_9allocatorIdEEEES5_EC2B8ue170006IS5_S5_LPv0EEEOT_OT0_, symObjAddr: 0x7978, symBinAddr: 0x1000094A0, symSize: 0x34 }
  - { offsetInCU: 0x13176, offset: 0x13176, size: 0x8, addend: 0x0, symName: __ZNSt3__116allocator_traitsINS_9allocatorINS_6vectorIdNS1_IdEEEEEEE9constructB8ue170006IS4_JRS4_EvvEEvRS5_PT_DpOT0_, symObjAddr: 0x79AC, symBinAddr: 0x1000094D4, symSize: 0x30 }
  - { offsetInCU: 0x131CA, offset: 0x131CA, size: 0x8, addend: 0x0, symName: __ZNSt3__16vectorINS0_IdNS_9allocatorIdEEEENS1_IS3_EEE11__make_iterB8ue170006EPS3_, symObjAddr: 0x7A18, symBinAddr: 0x100009540, symSize: 0x30 }
  - { offsetInCU: 0x131FF, offset: 0x131FF, size: 0x8, addend: 0x0, symName: __ZNSt3__111__wrap_iterIPNS_6vectorIdNS_9allocatorIdEEEEEC1B8ue170006ES5_, symObjAddr: 0x7A48, symBinAddr: 0x100009570, symSize: 0x34 }
  - { offsetInCU: 0x13237, offset: 0x13237, size: 0x8, addend: 0x0, symName: __ZNSt3__111__wrap_iterIPNS_6vectorIdNS_9allocatorIdEEEEEC2B8ue170006ES5_, symObjAddr: 0x7A7C, symBinAddr: 0x1000095A4, symSize: 0x20 }
  - { offsetInCU: 0x1326F, offset: 0x1326F, size: 0x8, addend: 0x0, symName: __ZNKSt3__111__wrap_iterIPNS_6vectorIdNS_9allocatorIdEEEEE4baseB8ue170006Ev, symObjAddr: 0x7AE4, symBinAddr: 0x10000960C, symSize: 0x18 }
  - { offsetInCU: 0x13295, offset: 0x13295, size: 0x8, addend: 0x0, symName: __ZNSt3__16vectorIdNS_9allocatorIdEEE11__make_iterB8ue170006EPd, symObjAddr: 0x7AFC, symBinAddr: 0x100009624, symSize: 0x30 }
  - { offsetInCU: 0x132CA, offset: 0x132CA, size: 0x8, addend: 0x0, symName: __ZNSt3__111__wrap_iterIPdEC1B8ue170006ES1_, symObjAddr: 0x7B2C, symBinAddr: 0x100009654, symSize: 0x34 }
  - { offsetInCU: 0x13302, offset: 0x13302, size: 0x8, addend: 0x0, symName: __ZNSt3__111__wrap_iterIPdEC2B8ue170006ES1_, symObjAddr: 0x7B60, symBinAddr: 0x100009688, symSize: 0x20 }
  - { offsetInCU: 0x1333A, offset: 0x1333A, size: 0x8, addend: 0x0, symName: __ZNKSt3__111__wrap_iterIPdE4baseB8ue170006Ev, symObjAddr: 0x7BC8, symBinAddr: 0x1000096F0, symSize: 0x18 }
  - { offsetInCU: 0x13360, offset: 0x13360, size: 0x8, addend: 0x0, symName: __ZNSt3__16vectorINS0_IdNS_9allocatorIdEEEENS1_IS3_EEE6assignIPKS3_Li0EEEvT_S9_, symObjAddr: 0x7BE0, symBinAddr: 0x100009708, symSize: 0x5C }
  - { offsetInCU: 0x133B5, offset: 0x133B5, size: 0x8, addend: 0x0, symName: __ZNSt3__16vectorINS0_IdNS_9allocatorIdEEEENS1_IS3_EEE18__assign_with_sizeB8ue170006IPKS3_S8_EEvT_T0_l, symObjAddr: 0x7C3C, symBinAddr: 0x100009764, symSize: 0x164 }
  - { offsetInCU: 0x13465, offset: 0x13465, size: 0x8, addend: 0x0, symName: __ZNSt3__16vectorINS0_IdNS_9allocatorIdEEEENS1_IS3_EEE17__destruct_at_endB8ue170006EPS3_, symObjAddr: 0x7E84, symBinAddr: 0x1000099AC, symSize: 0x4C }
  - { offsetInCU: 0x134A9, offset: 0x134A9, size: 0x8, addend: 0x0, symName: __ZNSt3__16vectorINS0_IdNS_9allocatorIdEEEENS1_IS3_EEE13__vdeallocateEv, symObjAddr: 0x7ED0, symBinAddr: 0x1000099F8, symSize: 0x94 }
  - { offsetInCU: 0x134D1, offset: 0x134D1, size: 0x8, addend: 0x0, symName: __ZNKSt3__16vectorINS0_IdNS_9allocatorIdEEEENS1_IS3_EEE11__recommendB8ue170006Em, symObjAddr: 0x7F64, symBinAddr: 0x100009A8C, symSize: 0xB4 }
  - { offsetInCU: 0x1354A, offset: 0x1354A, size: 0x8, addend: 0x0, symName: __ZNKSt3__111__copy_loopINS_17_ClassicAlgPolicyEEclB8ue170006IPKNS_6vectorIdNS_9allocatorIdEEEES9_PS7_EENS_4pairIT_T1_EESC_T0_SD_, symObjAddr: 0x8178, symBinAddr: 0x100009CA0, symSize: 0x88 }
  - { offsetInCU: 0x135B5, offset: 0x135B5, size: 0x8, addend: 0x0, symName: __ZNSt3__16vectorIdNS_9allocatorIdEEEaSB8ue170006ERKS3_, symObjAddr: 0x8264, symBinAddr: 0x100009D8C, symSize: 0x68 }
  - { offsetInCU: 0x135EC, offset: 0x135EC, size: 0x8, addend: 0x0, symName: __ZNSt3__16vectorIdNS_9allocatorIdEEE19__copy_assign_allocB8ue170006ERKS3_, symObjAddr: 0x82CC, symBinAddr: 0x100009DF4, symSize: 0x2C }
  - { offsetInCU: 0x13621, offset: 0x13621, size: 0x8, addend: 0x0, symName: __ZNSt3__16vectorIdNS_9allocatorIdEEE6assignIPdLi0EEEvT_S6_, symObjAddr: 0x82F8, symBinAddr: 0x100009E20, symSize: 0x5C }
  - { offsetInCU: 0x13676, offset: 0x13676, size: 0x8, addend: 0x0, symName: __ZNSt3__16vectorIdNS_9allocatorIdEEE19__copy_assign_allocB8ue170006ERKS3_NS_17integral_constantIbLb0EEE, symObjAddr: 0x8354, symBinAddr: 0x100009E7C, symSize: 0x14 }
  - { offsetInCU: 0x136B2, offset: 0x136B2, size: 0x8, addend: 0x0, symName: __ZNSt3__16vectorIdNS_9allocatorIdEEE18__assign_with_sizeB8ue170006IPdS5_EEvT_T0_l, symObjAddr: 0x8368, symBinAddr: 0x100009E90, symSize: 0x164 }
  - { offsetInCU: 0x13762, offset: 0x13762, size: 0x8, addend: 0x0, symName: __ZNSt3__16vectorIdNS_9allocatorIdEEE13__vdeallocateEv, symObjAddr: 0x852C, symBinAddr: 0x10000A054, symSize: 0x94 }
  - { offsetInCU: 0x1378A, offset: 0x1378A, size: 0x8, addend: 0x0, symName: __ZNSt3__16vectorIdNS_9allocatorIdEEE5clearB8ue170006Ev, symObjAddr: 0x8620, symBinAddr: 0x10000A148, symSize: 0x44 }
  - { offsetInCU: 0x137BF, offset: 0x137BF, size: 0x8, addend: 0x0, symName: __ZNSt3__14pairIPKNS_6vectorIdNS_9allocatorIdEEEEPS4_EC1B8ue170006IS6_S7_LPv0EEEOT_OT0_, symObjAddr: 0x868C, symBinAddr: 0x10000A1B4, symSize: 0x3C }
  - { offsetInCU: 0x1381D, offset: 0x1381D, size: 0x8, addend: 0x0, symName: __ZNSt3__14pairIPKNS_6vectorIdNS_9allocatorIdEEEEPS4_EC2B8ue170006IS6_S7_LPv0EEEOT_OT0_, symObjAddr: 0x86C8, symBinAddr: 0x10000A1F0, symSize: 0x34 }
  - { offsetInCU: 0x1387B, offset: 0x1387B, size: 0x8, addend: 0x0, symName: __ZNSt3__119__unwrap_range_implIPKNS_6vectorIdNS_9allocatorIdEEEES6_E8__rewrapB8ue170006ES6_S6_, symObjAddr: 0x86FC, symBinAddr: 0x10000A224, symSize: 0x2C }
  - { offsetInCU: 0x138AC, offset: 0x138AC, size: 0x8, addend: 0x0, symName: __ZNSt3__118__unwrap_iter_implIPKNS_6vectorIdNS_9allocatorIdEEEELb1EE8__rewrapB8ue170006ES6_S6_, symObjAddr: 0x8764, symBinAddr: 0x10000A28C, symSize: 0x58 }
  - { offsetInCU: 0x138DD, offset: 0x138DD, size: 0x8, addend: 0x0, symName: __ZNKSt3__16vectorINS0_IdNS_9allocatorIdEEEENS1_IS3_EEE17__annotate_shrinkB8ue170006Em, symObjAddr: 0x87BC, symBinAddr: 0x10000A2E4, symSize: 0xD0 }
  - { offsetInCU: 0x13912, offset: 0x13912, size: 0x8, addend: 0x0, symName: __ZNSt3__16vectorINS0_IdNS_9allocatorIdEEEENS1_IS3_EEE5clearB8ue170006Ev, symObjAddr: 0x888C, symBinAddr: 0x10000A3B4, symSize: 0x44 }
  - { offsetInCU: 0x13947, offset: 0x13947, size: 0x8, addend: 0x0, symName: __ZNSt3__18__iom_t6C1B8ue170006Ei, symObjAddr: 0x88F8, symBinAddr: 0x10000A420, symSize: 0x34 }
  - { offsetInCU: 0x1397F, offset: 0x1397F, size: 0x8, addend: 0x0, symName: __ZNSt3__18__iom_t6C2B8ue170006Ei, symObjAddr: 0x892C, symBinAddr: 0x10000A454, symSize: 0x20 }
  - { offsetInCU: 0x139B7, offset: 0x139B7, size: 0x8, addend: 0x0, symName: __ZNSt3__112basic_stringIcNS_11char_traitsIcEENS_9allocatorIcEEEC1B8ue170006EOS5_, symObjAddr: 0x894C, symBinAddr: 0x10000A474, symSize: 0x34 }
  - { offsetInCU: 0x139F0, offset: 0x139F0, size: 0x8, addend: 0x0, symName: __ZNSt3__112basic_stringIcNS_11char_traitsIcEENS_9allocatorIcEEEC2B8ue170006EOS5_, symObjAddr: 0x8980, symBinAddr: 0x10000A4A8, symSize: 0x50 }
  - { offsetInCU: 0x13A29, offset: 0x13A29, size: 0x8, addend: 0x0, symName: __ZNSt3__112basic_stringIcNS_11char_traitsIcEENS_9allocatorIcEEE14__default_initB8ue170006Ev, symObjAddr: 0x89D0, symBinAddr: 0x10000A4F8, symSize: 0x40 }
  - { offsetInCU: 0x13A4F, offset: 0x13A4F, size: 0x8, addend: 0x0, symName: __ZNSt3__117__compressed_pairINS_12basic_stringIcNS_11char_traitsIcEENS_9allocatorIcEEE5__repES5_E5firstB8ue170006Ev, symObjAddr: 0x8A10, symBinAddr: 0x10000A538, symSize: 0x24 }
  - { offsetInCU: 0x13A75, offset: 0x13A75, size: 0x8, addend: 0x0, symName: __ZNSt3__122__compressed_pair_elemINS_12basic_stringIcNS_11char_traitsIcEENS_9allocatorIcEEE5__repELi0ELb0EE5__getB8ue170006Ev, symObjAddr: 0x8A34, symBinAddr: 0x10000A55C, symSize: 0x14 }
  - { offsetInCU: 0x13A9B, offset: 0x13A9B, size: 0x8, addend: 0x0, symName: __ZNSt3__18__iom_t4IcEC1B8ue170006Ec, symObjAddr: 0x8A48, symBinAddr: 0x10000A570, symSize: 0x34 }
  - { offsetInCU: 0x13AD3, offset: 0x13AD3, size: 0x8, addend: 0x0, symName: __ZNSt3__18__iom_t4IcEC2B8ue170006Ec, symObjAddr: 0x8A7C, symBinAddr: 0x10000A5A4, symSize: 0x20 }
  - { offsetInCU: 0x13B0B, offset: 0x13B0B, size: 0x8, addend: 0x0, symName: __ZNSt3__19basic_iosIcNS_11char_traitsIcEEE4fillB8ue170006Ec, symObjAddr: 0x8A9C, symBinAddr: 0x10000A5C4, symSize: 0x74 }
  - { offsetInCU: 0x13B51, offset: 0x13B51, size: 0x8, addend: 0x0, symName: __ZNSt3__111char_traitsIcE11eq_int_typeB8ue170006Eii, symObjAddr: 0x8B10, symBinAddr: 0x10000A638, symSize: 0x28 }
  - { offsetInCU: 0x13B84, offset: 0x13B84, size: 0x8, addend: 0x0, symName: __ZNSt3__111char_traitsIcE3eofB8ue170006Ev, symObjAddr: 0x8B38, symBinAddr: 0x10000A660, symSize: 0x8 }
  - { offsetInCU: 0x13B98, offset: 0x13B98, size: 0x8, addend: 0x0, symName: __ZNKSt3__19basic_iosIcNS_11char_traitsIcEEE5widenB8ue170006Ec, symObjAddr: 0x8B40, symBinAddr: 0x10000A668, symSize: 0x84 }
  - { offsetInCU: 0x13C01, offset: 0x13C01, size: 0x8, addend: 0x0, symName: __ZNKSt3__15ctypeIcE5widenB8ue170006Ec, symObjAddr: 0x8BF0, symBinAddr: 0x10000A718, symSize: 0x38 }
  - { offsetInCU: 0x13C36, offset: 0x13C36, size: 0x8, addend: 0x0, symName: __ZNSt3__18ios_base5widthB8ue170006El, symObjAddr: 0x8C28, symBinAddr: 0x10000A750, symSize: 0x2C }
  - { offsetInCU: 0x13C7C, offset: 0x13C7C, size: 0x8, addend: 0x0, symName: __ZNKSt3__112basic_stringIcNS_11char_traitsIcEENS_9allocatorIcEEE4dataB8ue170006Ev, symObjAddr: 0x8E40, symBinAddr: 0x10000A968, symSize: 0x28 }
  - { offsetInCU: 0x13CA2, offset: 0x13CA2, size: 0x8, addend: 0x0, symName: __ZNKSt3__112basic_stringIcNS_11char_traitsIcEENS_9allocatorIcEEE4sizeB8ue170006Ev, symObjAddr: 0x8E68, symBinAddr: 0x10000A990, symSize: 0x54 }
  - { offsetInCU: 0x13CE6, offset: 0x13CE6, size: 0x8, addend: 0x0, symName: __ZNKSt3__113basic_ostreamIcNS_11char_traitsIcEEE6sentrycvbB8ue170006Ev, symObjAddr: 0x8EBC, symBinAddr: 0x10000A9E4, symSize: 0x1C }
  - { offsetInCU: 0x13D0C, offset: 0x13D0C, size: 0x8, addend: 0x0, symName: __ZNSt3__119ostreambuf_iteratorIcNS_11char_traitsIcEEEC1B8ue170006ERNS_13basic_ostreamIcS2_EE, symObjAddr: 0x9118, symBinAddr: 0x10000AC40, symSize: 0x34 }
  - { offsetInCU: 0x13D44, offset: 0x13D44, size: 0x8, addend: 0x0, symName: __ZNKSt3__18ios_base5flagsB8ue170006Ev, symObjAddr: 0x914C, symBinAddr: 0x10000AC74, symSize: 0x18 }
  - { offsetInCU: 0x13D6C, offset: 0x13D6C, size: 0x8, addend: 0x0, symName: __ZNKSt3__19basic_iosIcNS_11char_traitsIcEEE4fillB8ue170006Ev, symObjAddr: 0x9164, symBinAddr: 0x10000AC8C, symSize: 0x64 }
  - { offsetInCU: 0x13D94, offset: 0x13D94, size: 0x8, addend: 0x0, symName: __ZNKSt3__119ostreambuf_iteratorIcNS_11char_traitsIcEEE6failedB8ue170006Ev, symObjAddr: 0x91C8, symBinAddr: 0x10000ACF0, symSize: 0x24 }
  - { offsetInCU: 0x13DBA, offset: 0x13DBA, size: 0x8, addend: 0x0, symName: __ZNSt3__19basic_iosIcNS_11char_traitsIcEEE8setstateB8ue170006Ej, symObjAddr: 0x91EC, symBinAddr: 0x10000AD14, symSize: 0x2C }
  - { offsetInCU: 0x13DEF, offset: 0x13DEF, size: 0x8, addend: 0x0, symName: __ZNKSt3__18ios_base5widthB8ue170006Ev, symObjAddr: 0x9218, symBinAddr: 0x10000AD40, symSize: 0x18 }
  - { offsetInCU: 0x13E17, offset: 0x13E17, size: 0x8, addend: 0x0, symName: __ZNSt3__115basic_streambufIcNS_11char_traitsIcEEE5sputnB8ue170006EPKcl, symObjAddr: 0x9230, symBinAddr: 0x10000AD58, symSize: 0x3C }
  - { offsetInCU: 0x13E59, offset: 0x13E59, size: 0x8, addend: 0x0, symName: __ZNSt3__112basic_stringIcNS_11char_traitsIcEENS_9allocatorIcEEEC1B8ue170006Emc, symObjAddr: 0x926C, symBinAddr: 0x10000AD94, symSize: 0x3C }
  - { offsetInCU: 0x13EA1, offset: 0x13EA1, size: 0x8, addend: 0x0, symName: __ZNSt3__112basic_stringIcNS_11char_traitsIcEENS_9allocatorIcEEE4dataB8ue170006Ev, symObjAddr: 0x92A8, symBinAddr: 0x10000ADD0, symSize: 0x28 }
  - { offsetInCU: 0x13EC7, offset: 0x13EC7, size: 0x8, addend: 0x0, symName: __ZNSt3__112basic_stringIcNS_11char_traitsIcEENS_9allocatorIcEEEC2B8ue170006Emc, symObjAddr: 0x92D0, symBinAddr: 0x10000ADF8, symSize: 0x4C }
  - { offsetInCU: 0x13F0F, offset: 0x13F0F, size: 0x8, addend: 0x0, symName: __ZNSt3__117__compressed_pairINS_12basic_stringIcNS_11char_traitsIcEENS_9allocatorIcEEE5__repES5_EC1B8ue170006INS_18__default_init_tagESA_EEOT_OT0_, symObjAddr: 0x931C, symBinAddr: 0x10000AE44, symSize: 0x3C }
  - { offsetInCU: 0x13F67, offset: 0x13F67, size: 0x8, addend: 0x0, symName: __ZNSt3__117__compressed_pairINS_12basic_stringIcNS_11char_traitsIcEENS_9allocatorIcEEE5__repES5_EC2B8ue170006INS_18__default_init_tagESA_EEOT_OT0_, symObjAddr: 0x9358, symBinAddr: 0x10000AE80, symSize: 0x3C }
  - { offsetInCU: 0x13FBF, offset: 0x13FBF, size: 0x8, addend: 0x0, symName: __ZNSt3__122__compressed_pair_elemINS_12basic_stringIcNS_11char_traitsIcEENS_9allocatorIcEEE5__repELi0ELb0EEC2B8ue170006ENS_18__default_init_tagE, symObjAddr: 0x9394, symBinAddr: 0x10000AEBC, symSize: 0x14 }
  - { offsetInCU: 0x13FF3, offset: 0x13FF3, size: 0x8, addend: 0x0, symName: __ZNSt3__122__compressed_pair_elemINS_9allocatorIcEELi1ELb1EEC2B8ue170006ENS_18__default_init_tagE, symObjAddr: 0x93A8, symBinAddr: 0x10000AED0, symSize: 0x2C }
  - { offsetInCU: 0x14027, offset: 0x14027, size: 0x8, addend: 0x0, symName: __ZNSt3__19allocatorIcEC2B8ue170006Ev, symObjAddr: 0x93D4, symBinAddr: 0x10000AEFC, symSize: 0x2C }
  - { offsetInCU: 0x14051, offset: 0x14051, size: 0x8, addend: 0x0, symName: __ZNSt3__116__non_trivial_ifILb1ENS_9allocatorIcEEEC2B8ue170006Ev, symObjAddr: 0x9400, symBinAddr: 0x10000AF28, symSize: 0x14 }
  - { offsetInCU: 0x1407B, offset: 0x1407B, size: 0x8, addend: 0x0, symName: __ZNSt3__112basic_stringIcNS_11char_traitsIcEENS_9allocatorIcEEE13__get_pointerB8ue170006Ev, symObjAddr: 0x9428, symBinAddr: 0x10000AF50, symSize: 0x54 }
  - { offsetInCU: 0x140A1, offset: 0x140A1, size: 0x8, addend: 0x0, symName: __ZNKSt3__112basic_stringIcNS_11char_traitsIcEENS_9allocatorIcEEE9__is_longB8ue170006Ev, symObjAddr: 0x947C, symBinAddr: 0x10000AFA4, symSize: 0x38 }
  - { offsetInCU: 0x140C7, offset: 0x140C7, size: 0x8, addend: 0x0, symName: __ZNSt3__112basic_stringIcNS_11char_traitsIcEENS_9allocatorIcEEE18__get_long_pointerB8ue170006Ev, symObjAddr: 0x94B4, symBinAddr: 0x10000AFDC, symSize: 0x28 }
  - { offsetInCU: 0x140ED, offset: 0x140ED, size: 0x8, addend: 0x0, symName: __ZNSt3__112basic_stringIcNS_11char_traitsIcEENS_9allocatorIcEEE19__get_short_pointerB8ue170006Ev, symObjAddr: 0x94DC, symBinAddr: 0x10000B004, symSize: 0x28 }
  - { offsetInCU: 0x14113, offset: 0x14113, size: 0x8, addend: 0x0, symName: __ZNKSt3__117__compressed_pairINS_12basic_stringIcNS_11char_traitsIcEENS_9allocatorIcEEE5__repES5_E5firstB8ue170006Ev, symObjAddr: 0x9504, symBinAddr: 0x10000B02C, symSize: 0x24 }
  - { offsetInCU: 0x14139, offset: 0x14139, size: 0x8, addend: 0x0, symName: __ZNKSt3__122__compressed_pair_elemINS_12basic_stringIcNS_11char_traitsIcEENS_9allocatorIcEEE5__repELi0ELb0EE5__getB8ue170006Ev, symObjAddr: 0x9528, symBinAddr: 0x10000B050, symSize: 0x14 }
  - { offsetInCU: 0x1415F, offset: 0x1415F, size: 0x8, addend: 0x0, symName: __ZNSt3__114pointer_traitsIPcE10pointer_toB8ue170006ERc, symObjAddr: 0x953C, symBinAddr: 0x10000B064, symSize: 0x14 }
  - { offsetInCU: 0x14182, offset: 0x14182, size: 0x8, addend: 0x0, symName: __ZNSt3__119ostreambuf_iteratorIcNS_11char_traitsIcEEEC2B8ue170006ERNS_13basic_ostreamIcS2_EE, symObjAddr: 0x9550, symBinAddr: 0x10000B078, symSize: 0x54 }
  - { offsetInCU: 0x141BA, offset: 0x141BA, size: 0x8, addend: 0x0, symName: __ZNKSt3__19basic_iosIcNS_11char_traitsIcEEE5rdbufB8ue170006Ev, symObjAddr: 0x95A4, symBinAddr: 0x10000B0CC, symSize: 0x24 }
  - { offsetInCU: 0x141E2, offset: 0x141E2, size: 0x8, addend: 0x0, symName: __ZNKSt3__18ios_base5rdbufB8ue170006Ev, symObjAddr: 0x95C8, symBinAddr: 0x10000B0F0, symSize: 0x18 }
  - { offsetInCU: 0x14208, offset: 0x14208, size: 0x8, addend: 0x0, symName: __ZNSt3__18ios_base8setstateB8ue170006Ej, symObjAddr: 0x95E0, symBinAddr: 0x10000B108, symSize: 0x34 }
  - { offsetInCU: 0x1423F, offset: 0x1423F, size: 0x8, addend: 0x0, symName: __ZNKSt3__112basic_stringIcNS_11char_traitsIcEENS_9allocatorIcEEE13__get_pointerB8ue170006Ev, symObjAddr: 0x9628, symBinAddr: 0x10000B150, symSize: 0x54 }
  - { offsetInCU: 0x14265, offset: 0x14265, size: 0x8, addend: 0x0, symName: __ZNKSt3__112basic_stringIcNS_11char_traitsIcEENS_9allocatorIcEEE18__get_long_pointerB8ue170006Ev, symObjAddr: 0x967C, symBinAddr: 0x10000B1A4, symSize: 0x28 }
  - { offsetInCU: 0x1428B, offset: 0x1428B, size: 0x8, addend: 0x0, symName: __ZNKSt3__112basic_stringIcNS_11char_traitsIcEENS_9allocatorIcEEE19__get_short_pointerB8ue170006Ev, symObjAddr: 0x96A4, symBinAddr: 0x10000B1CC, symSize: 0x28 }
  - { offsetInCU: 0x142B1, offset: 0x142B1, size: 0x8, addend: 0x0, symName: __ZNSt3__114pointer_traitsIPKcE10pointer_toB8ue170006ERS1_, symObjAddr: 0x96CC, symBinAddr: 0x10000B1F4, symSize: 0x14 }
  - { offsetInCU: 0x142D4, offset: 0x142D4, size: 0x8, addend: 0x0, symName: __ZNKSt3__112basic_stringIcNS_11char_traitsIcEENS_9allocatorIcEEE15__get_long_sizeB8ue170006Ev, symObjAddr: 0x96E0, symBinAddr: 0x10000B208, symSize: 0x28 }
  - { offsetInCU: 0x142FA, offset: 0x142FA, size: 0x8, addend: 0x0, symName: __ZNKSt3__112basic_stringIcNS_11char_traitsIcEENS_9allocatorIcEEE16__get_short_sizeB8ue170006Ev, symObjAddr: 0x9708, symBinAddr: 0x10000B230, symSize: 0x34 }
  - { offsetInCU: 0x14320, offset: 0x14320, size: 0x8, addend: 0x0, symName: __ZNSt3__111char_traitsIcE6lengthB8ue170006EPKc, symObjAddr: 0x973C, symBinAddr: 0x10000B264, symSize: 0x34 }
...
